(itrades
trades
p0
(dp1
S'sell'
p2
cdecimal
Decimal
p3
(S'15.3'
p4
tp5
Rp6
sS'updated'
p7
cdatetime
datetime
p8
(S'\x07\xde\x02\x17\x12\x01\x0c\x00\x00\x00'
p9
tp10
Rp11
sS'buy'
p12
g3
(S'15.3399'
p13
tp14
Rp15
sS'server_time'
p16
g8
(S'\x07\xde\x02\x17\x12\x01\x0c\x00\x00\x00'
p17
tp18
Rp19
sS'time_object'
p20
ctime
struct_time
p21
((I2014
I2
I23
I18
I1
I11
I6
I54
I0
tp22
(dp23
tp24
Rp25
sS'time'
p26
S'18:01:11'
p27
sS'date'
p28
S'02/23/14'
p29
sS'coin'
p30
S'ltc'
p31
sb.(itrades
trades
p0
(dp1
S'sell'
p2
cdecimal
Decimal
p3
(S'15.3'
p4
tp5
Rp6
sS'updated'
p7
cdatetime
datetime
p8
(S'\x07\xde\x02\x17\x12\x0b\x0c\x00\x00\x00'
p9
tp10
Rp11
sS'buy'
p12
g3
(S'15.356'
p13
tp14
Rp15
sS'server_time'
p16
g8
(S'\x07\xde\x02\x17\x12\x0b\r\x00\x00\x00'
p17
tp18
Rp19
sS'time_object'
p20
ctime
struct_time
p21
((I2014
I2
I23
I18
I11
I14
I6
I54
I0
tp22
(dp23
tp24
Rp25
sS'time'
p26
S'18:11:14'
p27
sS'date'
p28
S'02/23/14'
p29
sS'coin'
p30
S'ltc'
p31
sb.(itrades
trades
p0
(dp1
S'sell'
p2
cdecimal
Decimal
p3
(S'15.29999'
p4
tp5
Rp6
sS'updated'
p7
cdatetime
datetime
p8
(S'\x07\xde\x02\x17\x12\x15\x0f\x00\x00\x00'
p9
tp10
Rp11
sS'buy'
p12
g3
(S'15.3'
p13
tp14
Rp15
sS'server_time'
p16
g8
(S'\x07\xde\x02\x17\x12\x15\x11\x00\x00\x00'
p17
tp18
Rp19
sS'time_object'
p20
ctime
struct_time
p21
((I2014
I2
I23
I18
I21
I18
I6
I54
I0
tp22
(dp23
tp24
Rp25
sS'time'
p26
S'18:21:18'
p27
sS'date'
p28
S'02/23/14'
p29
sS'coin'
p30
S'ltc'
p31
sb.(itrades
trades
p0
(dp1
S'sell'
p2
cdecimal
Decimal
p3
(S'15.400001'
p4
tp5
Rp6
sS'updated'
p7
cdatetime
datetime
p8
(S'\x07\xde\x02\x17\x12\x1f\x12\x00\x00\x00'
p9
tp10
Rp11
sS'buy'
p12
g3
(S'15.45488'
p13
tp14
Rp15
sS'server_time'
p16
g8
(S'\x07\xde\x02\x17\x12\x1f\x13\x00\x00\x00'
p17
tp18
Rp19
sS'time_object'
p20
ctime
struct_time
p21
((I2014
I2
I23
I18
I31
I19
I6
I54
I0
tp22
(dp23
tp24
Rp25
sS'time'
p26
S'18:31:19'
p27
sS'date'
p28
S'02/23/14'
p29
sS'coin'
p30
S'ltc'
p31
sb.(itrades
trades
p0
(dp1
S'sell'
p2
cdecimal
Decimal
p3
(S'15.3'
p4
tp5
Rp6
sS'updated'
p7
cdatetime
datetime
p8
(S'\x07\xde\x02\x17\x12)\x16\x00\x00\x00'
p9
tp10
Rp11
sS'buy'
p12
g3
(S'15.39876'
p13
tp14
Rp15
sS'server_time'
p16
g8
(S'\x07\xde\x02\x17\x12)\x17\x00\x00\x00'
p17
tp18
Rp19
sS'time_object'
p20
ctime
struct_time
p21
((I2014
I2
I23
I18
I41
I22
I6
I54
I0
tp22
(dp23
tp24
Rp25
sS'time'
p26
S'18:41:22'
p27
sS'date'
p28
S'02/23/14'
p29
sS'coin'
p30
S'ltc'
p31
sb.(itrades
trades
p0
(dp1
S'sell'
p2
cdecimal
Decimal
p3
(S'15.4'
p4
tp5
Rp6
sS'updated'
p7
cdatetime
datetime
p8
(S'\x07\xde\x02\x17\x123\x17\x00\x00\x00'
p9
tp10
Rp11
sS'buy'
p12
g3
(S'15.400001'
p13
tp14
Rp15
sS'server_time'
p16
g8
(S'\x07\xde\x02\x17\x123\x18\x00\x00\x00'
p17
tp18
Rp19
sS'time_object'
p20
ctime
struct_time
p21
((I2014
I2
I23
I18
I51
I24
I6
I54
I0
tp22
(dp23
tp24
Rp25
sS'time'
p26
S'18:51:24'
p27
sS'date'
p28
S'02/23/14'
p29
sS'coin'
p30
S'ltc'
p31
sb.(itrades
trades
p0
(dp1
S'sell'
p2
cdecimal
Decimal
p3
(S'15.2603'
p4
tp5
Rp6
sS'updated'
p7
cdatetime
datetime
p8
(S'\x07\xde\x02\x17\x13\x01\x17\x00\x00\x00'
p9
tp10
Rp11
sS'buy'
p12
g3
(S'15.2914'
p13
tp14
Rp15
sS'server_time'
p16
g8
(S'\x07\xde\x02\x17\x13\x01\x19\x00\x00\x00'
p17
tp18
Rp19
sS'time_object'
p20
ctime
struct_time
p21
((I2014
I2
I23
I19
I1
I25
I6
I54
I0
tp22
(dp23
tp24
Rp25
sS'time'
p26
S'19:01:25'
p27
sS'date'
p28
S'02/23/14'
p29
sS'coin'
p30
S'ltc'
p31
sb.(itrades
trades
p0
(dp1
S'sell'
p2
cdecimal
Decimal
p3
(S'15.3'
p4
tp5
Rp6
sS'updated'
p7
cdatetime
datetime
p8
(S'\x07\xde\x02\x17\x13\x0b\x1a\x00\x00\x00'
p9
tp10
Rp11
sS'buy'
p12
g3
(S'15.328911'
p13
tp14
Rp15
sS'server_time'
p16
g8
(S'\x07\xde\x02\x17\x13\x0b\x1b\x00\x00\x00'
p17
tp18
Rp19
sS'time_object'
p20
ctime
struct_time
p21
((I2014
I2
I23
I19
I11
I26
I6
I54
I0
tp22
(dp23
tp24
Rp25
sS'time'
p26
S'19:11:26'
p27
sS'date'
p28
S'02/23/14'
p29
sS'coin'
p30
S'ltc'
p31
sb.(itrades
trades
p0
(dp1
S'sell'
p2
cdecimal
Decimal
p3
(S'15.22'
p4
tp5
Rp6
sS'updated'
p7
cdatetime
datetime
p8
(S'\x07\xde\x02\x17\x13\x15\x1b\x00\x00\x00'
p9
tp10
Rp11
sS'buy'
p12
g3
(S'15.2878'
p13
tp14
Rp15
sS'server_time'
p16
g8
(S'\x07\xde\x02\x17\x13\x15\x1b\x00\x00\x00'
p17
tp18
Rp19
sS'time_object'
p20
ctime
struct_time
p21
((I2014
I2
I23
I19
I21
I27
I6
I54
I0
tp22
(dp23
tp24
Rp25
sS'time'
p26
S'19:21:27'
p27
sS'date'
p28
S'02/23/14'
p29
sS'coin'
p30
S'ltc'
p31
sb.(itrades
trades
p0
(dp1
S'sell'
p2
cdecimal
Decimal
p3
(S'15.201'
p4
tp5
Rp6
sS'updated'
p7
cdatetime
datetime
p8
(S'\x07\xde\x02\x17\x13\x1f\x1b\x00\x00\x00'
p9
tp10
Rp11
sS'buy'
p12
g3
(S'15.2877'
p13
tp14
Rp15
sS'server_time'
p16
g8
(S'\x07\xde\x02\x17\x13\x1f\x1c\x00\x00\x00'
p17
tp18
Rp19
sS'time_object'
p20
ctime
struct_time
p21
((I2014
I2
I23
I19
I31
I29
I6
I54
I0
tp22
(dp23
tp24
Rp25
sS'time'
p26
S'19:31:29'
p27
sS'date'
p28
S'02/23/14'
p29
sS'coin'
p30
S'ltc'
p31
sb.(itrades
trades
p0
(dp1
S'sell'
p2
cdecimal
Decimal
p3
(S'15.2728'
p4
tp5
Rp6
sS'updated'
p7
cdatetime
datetime
p8
(S'\x07\xde\x02\x17\x13)\x1e\x00\x00\x00'
p9
tp10
Rp11
sS'buy'
p12
g3
(S'15.285'
p13
tp14
Rp15
sS'server_time'
p16
g8
(S'\x07\xde\x02\x17\x13)\x1e\x00\x00\x00'
p17
tp18
Rp19
sS'time_object'
p20
ctime
struct_time
p21
((I2014
I2
I23
I19
I41
I30
I6
I54
I0
tp22
(dp23
tp24
Rp25
sS'time'
p26
S'19:41:30'
p27
sS'date'
p28
S'02/23/14'
p29
sS'coin'
p30
S'ltc'
p31
sb.(itrades
trades
p0
(dp1
S'sell'
p2
cdecimal
Decimal
p3
(S'15.205'
p4
tp5
Rp6
sS'updated'
p7
cdatetime
datetime
p8
(S'\x07\xde\x02\x17\x133\x1f\x00\x00\x00'
p9
tp10
Rp11
sS'buy'
p12
g3
(S'15.28'
p13
tp14
Rp15
sS'server_time'
p16
g8
(S'\x07\xde\x02\x17\x133\x1f\x00\x00\x00'
p17
tp18
Rp19
sS'time_object'
p20
ctime
struct_time
p21
((I2014
I2
I23
I19
I51
I30
I6
I54
I0
tp22
(dp23
tp24
Rp25
sS'time'
p26
S'19:51:30'
p27
sS'date'
p28
S'02/23/14'
p29
sS'coin'
p30
S'ltc'
p31
sb.(itrades
trades
p0
(dp1
S'sell'
p2
cdecimal
Decimal
p3
(S'15.17071'
p4
tp5
Rp6
sS'updated'
p7
cdatetime
datetime
p8
(S'\x07\xde\x02\x17\x14\x01%\x00\x00\x00'
p9
tp10
Rp11
sS'buy'
p12
g3
(S'15.261'
p13
tp14
Rp15
sS'server_time'
p16
g8
(S'\x07\xde\x02\x17\x14\x01&\x00\x00\x00'
p17
tp18
Rp19
sS'time_object'
p20
ctime
struct_time
p21
((I2014
I2
I23
I20
I1
I37
I6
I54
I0
tp22
(dp23
tp24
Rp25
sS'time'
p26
S'20:01:37'
p27
sS'date'
p28
S'02/23/14'
p29
sS'coin'
p30
S'ltc'
p31
sb.(itrades
trades
p0
(dp1
S'sell'
p2
cdecimal
Decimal
p3
(S'15.258'
p4
tp5
Rp6
sS'updated'
p7
cdatetime
datetime
p8
(S'\x07\xde\x02\x17\x14\x0b&\x00\x00\x00'
p9
tp10
Rp11
sS'buy'
p12
g3
(S'15.259999'
p13
tp14
Rp15
sS'server_time'
p16
g8
(S'\x07\xde\x02\x17\x14\x0b&\x00\x00\x00'
p17
tp18
Rp19
sS'time_object'
p20
ctime
struct_time
p21
((I2014
I2
I23
I20
I11
I38
I6
I54
I0
tp22
(dp23
tp24
Rp25
sS'time'
p26
S'20:11:38'
p27
sS'date'
p28
S'02/23/14'
p29
sS'coin'
p30
S'ltc'
p31
sb.(itrades
trades
p0
(dp1
S'sell'
p2
cdecimal
Decimal
p3
(S'15.033554'
p4
tp5
Rp6
sS'updated'
p7
cdatetime
datetime
p8
(S'\x07\xde\x02\x17\x14\x15)\x00\x00\x00'
p9
tp10
Rp11
sS'buy'
p12
g3
(S'15.189988'
p13
tp14
Rp15
sS'server_time'
p16
g8
(S'\x07\xde\x02\x17\x14\x15)\x00\x00\x00'
p17
tp18
Rp19
sS'time_object'
p20
ctime
struct_time
p21
((I2014
I2
I23
I20
I21
I41
I6
I54
I0
tp22
(dp23
tp24
Rp25
sS'time'
p26
S'20:21:41'
p27
sS'date'
p28
S'02/23/14'
p29
sS'coin'
p30
S'ltc'
p31
sb.(itrades
trades
p0
(dp1
S'sell'
p2
cdecimal
Decimal
p3
(S'15'
p4
tp5
Rp6
sS'updated'
p7
cdatetime
datetime
p8
(S'\x07\xde\x02\x17\x14\x1f)\x00\x00\x00'
p9
tp10
Rp11
sS'buy'
p12
g3
(S'15.07'
p13
tp14
Rp15
sS'server_time'
p16
g8
(S'\x07\xde\x02\x17\x14\x1f*\x00\x00\x00'
p17
tp18
Rp19
sS'time_object'
p20
ctime
struct_time
p21
((I2014
I2
I23
I20
I31
I41
I6
I54
I0
tp22
(dp23
tp24
Rp25
sS'time'
p26
S'20:31:41'
p27
sS'date'
p28
S'02/23/14'
p29
sS'coin'
p30
S'ltc'
p31
sb.(itrades
trades
p0
(dp1
S'sell'
p2
cdecimal
Decimal
p3
(S'14.941383'
p4
tp5
Rp6
sS'updated'
p7
cdatetime
datetime
p8
(S'\x07\xde\x02\x17\x14),\x00\x00\x00'
p9
tp10
Rp11
sS'buy'
p12
g3
(S'14.94396'
p13
tp14
Rp15
sS'server_time'
p16
g8
(S'\x07\xde\x02\x17\x14),\x00\x00\x00'
p17
tp18
Rp19
sS'time_object'
p20
ctime
struct_time
p21
((I2014
I2
I23
I20
I41
I48
I6
I54
I0
tp22
(dp23
tp24
Rp25
sS'time'
p26
S'20:41:48'
p27
sS'date'
p28
S'02/23/14'
p29
sS'coin'
p30
S'ltc'
p31
sb.(itrades
trades
p0
(dp1
S'sell'
p2
cdecimal
Decimal
p3
(S'15.02448'
p4
tp5
Rp6
sS'updated'
p7
cdatetime
datetime
p8
(S'\x07\xde\x02\x17\x1431\x00\x00\x00'
p9
tp10
Rp11
sS'buy'
p12
g3
(S'15.0245'
p13
tp14
Rp15
sS'server_time'
p16
g8
(S'\x07\xde\x02\x17\x1432\x00\x00\x00'
p17
tp18
Rp19
sS'time_object'
p20
ctime
struct_time
p21
((I2014
I2
I23
I20
I51
I49
I6
I54
I0
tp22
(dp23
tp24
Rp25
sS'time'
p26
S'20:51:49'
p27
sS'date'
p28
S'02/23/14'
p29
sS'coin'
p30
S'ltc'
p31
sb.(itrades
trades
p0
(dp1
S'sell'
p2
cdecimal
Decimal
p3
(S'14.954'
p4
tp5
Rp6
sS'updated'
p7
cdatetime
datetime
p8
(S'\x07\xde\x02\x17\x15\x011\x00\x00\x00'
p9
tp10
Rp11
sS'buy'
p12
g3
(S'15.01346'
p13
tp14
Rp15
sS'server_time'
p16
g8
(S'\x07\xde\x02\x17\x15\x012\x00\x00\x00'
p17
tp18
Rp19
sS'time_object'
p20
ctime
struct_time
p21
((I2014
I2
I23
I21
I1
I51
I6
I54
I0
tp22
(dp23
tp24
Rp25
sS'time'
p26
S'21:01:51'
p27
sS'date'
p28
S'02/23/14'
p29
sS'coin'
p30
S'ltc'
p31
sb.(itrades
trades
p0
(dp1
S'sell'
p2
cdecimal
Decimal
p3
(S'15'
p4
tp5
Rp6
sS'updated'
p7
cdatetime
datetime
p8
(S'\x07\xde\x02\x17\x15\x0b4\x00\x00\x00'
p9
tp10
Rp11
sS'buy'
p12
g3
(S'15.019'
p13
tp14
Rp15
sS'server_time'
p16
g8
(S'\x07\xde\x02\x17\x15\x0b5\x00\x00\x00'
p17
tp18
Rp19
sS'time_object'
p20
ctime
struct_time
p21
((I2014
I2
I23
I21
I11
I52
I6
I54
I0
tp22
(dp23
tp24
Rp25
sS'time'
p26
S'21:11:52'
p27
sS'date'
p28
S'02/23/14'
p29
sS'coin'
p30
S'ltc'
p31
sb.(itrades
trades
p0
(dp1
S'sell'
p2
cdecimal
Decimal
p3
(S'14.81'
p4
tp5
Rp6
sS'updated'
p7
cdatetime
datetime
p8
(S'\x07\xde\x02\x17\x15\x155\x00\x00\x00'
p9
tp10
Rp11
sS'buy'
p12
g3
(S'14.81003'
p13
tp14
Rp15
sS'server_time'
p16
g8
(S'\x07\xde\x02\x17\x15\x156\x00\x00\x00'
p17
tp18
Rp19
sS'time_object'
p20
ctime
struct_time
p21
((I2014
I2
I23
I21
I21
I54
I6
I54
I0
tp22
(dp23
tp24
Rp25
sS'time'
p26
S'21:21:54'
p27
sS'date'
p28
S'02/23/14'
p29
sS'coin'
p30
S'ltc'
p31
sb.(itrades
trades
p0
(dp1
S'sell'
p2
cdecimal
Decimal
p3
(S'14.75'
p4
tp5
Rp6
sS'updated'
p7
cdatetime
datetime
p8
(S'\x07\xde\x02\x17\x15\x1f7\x00\x00\x00'
p9
tp10
Rp11
sS'buy'
p12
g3
(S'14.8178'
p13
tp14
Rp15
sS'server_time'
p16
g8
(S'\x07\xde\x02\x17\x15\x1f8\x00\x00\x00'
p17
tp18
Rp19
sS'time_object'
p20
ctime
struct_time
p21
((I2014
I2
I23
I21
I31
I56
I6
I54
I0
tp22
(dp23
tp24
Rp25
sS'time'
p26
S'21:31:56'
p27
sS'date'
p28
S'02/23/14'
p29
sS'coin'
p30
S'ltc'
p31
sb.(itrades
trades
p0
(dp1
S'sell'
p2
cdecimal
Decimal
p3
(S'14.72'
p4
tp5
Rp6
sS'updated'
p7
cdatetime
datetime
p8
(S'\x07\xde\x02\x17\x15)8\x00\x00\x00'
p9
tp10
Rp11
sS'buy'
p12
g3
(S'14.74'
p13
tp14
Rp15
sS'server_time'
p16
g8
(S'\x07\xde\x02\x17\x15)9\x00\x00\x00'
p17
tp18
Rp19
sS'time_object'
p20
ctime
struct_time
p21
((I2014
I2
I23
I21
I41
I56
I6
I54
I0
tp22
(dp23
tp24
Rp25
sS'time'
p26
S'21:41:56'
p27
sS'date'
p28
S'02/23/14'
p29
sS'coin'
p30
S'ltc'
p31
sb.(itrades
trades
p0
(dp1
S'sell'
p2
cdecimal
Decimal
p3
(S'14.720101'
p4
tp5
Rp6
sS'updated'
p7
cdatetime
datetime
p8
(S'\x07\xde\x02\x17\x1539\x00\x00\x00'
p9
tp10
Rp11
sS'buy'
p12
g3
(S'14.8799'
p13
tp14
Rp15
sS'server_time'
p16
g8
(S'\x07\xde\x02\x17\x1539\x00\x00\x00'
p17
tp18
Rp19
sS'time_object'
p20
ctime
struct_time
p21
((I2014
I2
I23
I21
I51
I57
I6
I54
I0
tp22
(dp23
tp24
Rp25
sS'time'
p26
S'21:51:57'
p27
sS'date'
p28
S'02/23/14'
p29
sS'coin'
p30
S'ltc'
p31
sb.(itrades
trades
p0
(dp1
S'sell'
p2
cdecimal
Decimal
p3
(S'14.5'
p4
tp5
Rp6
sS'updated'
p7
cdatetime
datetime
p8
(S'\x07\xde\x02\x17\x16\x019\x00\x00\x00'
p9
tp10
Rp11
sS'buy'
p12
g3
(S'14.510001'
p13
tp14
Rp15
sS'server_time'
p16
g8
(S'\x07\xde\x02\x17\x16\x01;\x00\x00\x00'
p17
tp18
Rp19
sS'time_object'
p20
ctime
struct_time
p21
((I2014
I2
I23
I22
I1
I58
I6
I54
I0
tp22
(dp23
tp24
Rp25
sS'time'
p26
S'22:01:58'
p27
sS'date'
p28
S'02/23/14'
p29
sS'coin'
p30
S'ltc'
p31
sb.(itrades
trades
p0
(dp1
S'sell'
p2
cdecimal
Decimal
p3
(S'14.563771'
p4
tp5
Rp6
sS'updated'
p7
cdatetime
datetime
p8
(S'\x07\xde\x02\x17\x16\x0c\x00\x00\x00\x00'
p9
tp10
Rp11
sS'buy'
p12
g3
(S'14.58659'
p13
tp14
Rp15
sS'server_time'
p16
g8
(S'\x07\xde\x02\x17\x16\x0c\x00\x00\x00\x00'
p17
tp18
Rp19
sS'time_object'
p20
ctime
struct_time
p21
((I2014
I2
I23
I22
I12
I0
I6
I54
I0
tp22
(dp23
tp24
Rp25
sS'time'
p26
S'22:12:00'
p27
sS'date'
p28
S'02/23/14'
p29
sS'coin'
p30
S'ltc'
p31
sb.(itrades
trades
p0
(dp1
S'sell'
p2
cdecimal
Decimal
p3
(S'14.61'
p4
tp5
Rp6
sS'updated'
p7
cdatetime
datetime
p8
(S'\x07\xde\x02\x17\x16\x16\x00\x00\x00\x00'
p9
tp10
Rp11
sS'buy'
p12
g3
(S'14.64994'
p13
tp14
Rp15
sS'server_time'
p16
g8
(S'\x07\xde\x02\x17\x16\x16\x02\x00\x00\x00'
p17
tp18
Rp19
sS'time_object'
p20
ctime
struct_time
p21
((I2014
I2
I23
I22
I22
I2
I6
I54
I0
tp22
(dp23
tp24
Rp25
sS'time'
p26
S'22:22:02'
p27
sS'date'
p28
S'02/23/14'
p29
sS'coin'
p30
S'ltc'
p31
sb.(itrades
trades
p0
(dp1
S'sell'
p2
cdecimal
Decimal
p3
(S'14.63'
p4
tp5
Rp6
sS'updated'
p7
cdatetime
datetime
p8
(S'\x07\xde\x02\x17\x16 \x03\x00\x00\x00'
p9
tp10
Rp11
sS'buy'
p12
g3
(S'14.74991'
p13
tp14
Rp15
sS'server_time'
p16
g8
(S'\x07\xde\x02\x17\x16 \x04\x00\x00\x00'
p17
tp18
Rp19
sS'time_object'
p20
ctime
struct_time
p21
((I2014
I2
I23
I22
I32
I3
I6
I54
I0
tp22
(dp23
tp24
Rp25
sS'time'
p26
S'22:32:03'
p27
sS'date'
p28
S'02/23/14'
p29
sS'coin'
p30
S'ltc'
p31
sb.(itrades
trades
p0
(dp1
S'sell'
p2
cdecimal
Decimal
p3
(S'14.7101'
p4
tp5
Rp6
sS'updated'
p7
cdatetime
datetime
p8
(S'\x07\xde\x02\x17\x16*\x04\x00\x00\x00'
p9
tp10
Rp11
sS'buy'
p12
g3
(S'14.83185'
p13
tp14
Rp15
sS'server_time'
p16
g8
(S'\x07\xde\x02\x17\x16*\x05\x00\x00\x00'
p17
tp18
Rp19
sS'time_object'
p20
ctime
struct_time
p21
((I2014
I2
I23
I22
I42
I5
I6
I54
I0
tp22
(dp23
tp24
Rp25
sS'time'
p26
S'22:42:05'
p27
sS'date'
p28
S'02/23/14'
p29
sS'coin'
p30
S'ltc'
p31
sb.(itrades
trades
p0
(dp1
S'sell'
p2
cdecimal
Decimal
p3
(S'14.502003'
p4
tp5
Rp6
sS'updated'
p7
cdatetime
datetime
p8
(S'\x07\xde\x02\x17\x164\x04\x00\x00\x00'
p9
tp10
Rp11
sS'buy'
p12
g3
(S'14.50949'
p13
tp14
Rp15
sS'server_time'
p16
g8
(S'\x07\xde\x02\x17\x164\x06\x00\x00\x00'
p17
tp18
Rp19
sS'time_object'
p20
ctime
struct_time
p21
((I2014
I2
I23
I22
I52
I6
I6
I54
I0
tp22
(dp23
tp24
Rp25
sS'time'
p26
S'22:52:06'
p27
sS'date'
p28
S'02/23/14'
p29
sS'coin'
p30
S'ltc'
p31
sb.(itrades
trades
p0
(dp1
S'sell'
p2
cdecimal
Decimal
p3
(S'14.56'
p4
tp5
Rp6
sS'updated'
p7
cdatetime
datetime
p8
(S'\x07\xde\x02\x17\x17\x02\x05\x00\x00\x00'
p9
tp10
Rp11
sS'buy'
p12
g3
(S'14.59792'
p13
tp14
Rp15
sS'server_time'
p16
g8
(S'\x07\xde\x02\x17\x17\x02\x07\x00\x00\x00'
p17
tp18
Rp19
sS'time_object'
p20
ctime
struct_time
p21
((I2014
I2
I23
I23
I2
I6
I6
I54
I0
tp22
(dp23
tp24
Rp25
sS'time'
p26
S'23:02:06'
p27
sS'date'
p28
S'02/23/14'
p29
sS'coin'
p30
S'ltc'
p31
sb.(itrades
trades
p0
(dp1
S'sell'
p2
cdecimal
Decimal
p3
(S'14.8599'
p4
tp5
Rp6
sS'updated'
p7
cdatetime
datetime
p8
(S'\x07\xde\x02\x17\x17\x0c\x08\x00\x00\x00'
p9
tp10
Rp11
sS'buy'
p12
g3
(S'14.86'
p13
tp14
Rp15
sS'server_time'
p16
g8
(S'\x07\xde\x02\x17\x17\x0c\t\x00\x00\x00'
p17
tp18
Rp19
sS'time_object'
p20
ctime
struct_time
p21
((I2014
I2
I23
I23
I12
I8
I6
I54
I0
tp22
(dp23
tp24
Rp25
sS'time'
p26
S'23:12:08'
p27
sS'date'
p28
S'02/23/14'
p29
sS'coin'
p30
S'ltc'
p31
sb.(itrades
trades
p0
(dp1
S'sell'
p2
cdecimal
Decimal
p3
(S'14.671'
p4
tp5
Rp6
sS'updated'
p7
cdatetime
datetime
p8
(S'\x07\xde\x02\x17\x17\x16\x08\x00\x00\x00'
p9
tp10
Rp11
sS'buy'
p12
g3
(S'14.7'
p13
tp14
Rp15
sS'server_time'
p16
g8
(S'\x07\xde\x02\x17\x17\x16\t\x00\x00\x00'
p17
tp18
Rp19
sS'time_object'
p20
ctime
struct_time
p21
((I2014
I2
I23
I23
I22
I10
I6
I54
I0
tp22
(dp23
tp24
Rp25
sS'time'
p26
S'23:22:10'
p27
sS'date'
p28
S'02/23/14'
p29
sS'coin'
p30
S'ltc'
p31
sb.(itrades
trades
p0
(dp1
S'sell'
p2
cdecimal
Decimal
p3
(S'14.798968'
p4
tp5
Rp6
sS'updated'
p7
cdatetime
datetime
p8
(S'\x07\xde\x02\x17\x17 \x0b\x00\x00\x00'
p9
tp10
Rp11
sS'buy'
p12
g3
(S'14.909899'
p13
tp14
Rp15
sS'server_time'
p16
g8
(S'\x07\xde\x02\x17\x17 \x0c\x00\x00\x00'
p17
tp18
Rp19
sS'time_object'
p20
ctime
struct_time
p21
((I2014
I2
I23
I23
I32
I12
I6
I54
I0
tp22
(dp23
tp24
Rp25
sS'time'
p26
S'23:32:12'
p27
sS'date'
p28
S'02/23/14'
p29
sS'coin'
p30
S'ltc'
p31
sb.(itrades
trades
p0
(dp1
S'sell'
p2
cdecimal
Decimal
p3
(S'14.82851'
p4
tp5
Rp6
sS'updated'
p7
cdatetime
datetime
p8
(S'\x07\xde\x02\x17\x17*\x0e\x00\x00\x00'
p9
tp10
Rp11
sS'buy'
p12
g3
(S'14.934877'
p13
tp14
Rp15
sS'server_time'
p16
g8
(S'\x07\xde\x02\x17\x17*\x0e\x00\x00\x00'
p17
tp18
Rp19
sS'time_object'
p20
ctime
struct_time
p21
((I2014
I2
I23
I23
I42
I13
I6
I54
I0
tp22
(dp23
tp24
Rp25
sS'time'
p26
S'23:42:13'
p27
sS'date'
p28
S'02/23/14'
p29
sS'coin'
p30
S'ltc'
p31
sb.(itrades
trades
p0
(dp1
S'sell'
p2
cdecimal
Decimal
p3
(S'14.9'
p4
tp5
Rp6
sS'updated'
p7
cdatetime
datetime
p8
(S'\x07\xde\x02\x17\x174\x0e\x00\x00\x00'
p9
tp10
Rp11
sS'buy'
p12
g3
(S'14.93'
p13
tp14
Rp15
sS'server_time'
p16
g8
(S'\x07\xde\x02\x17\x174\x0f\x00\x00\x00'
p17
tp18
Rp19
sS'time_object'
p20
ctime
struct_time
p21
((I2014
I2
I23
I23
I52
I14
I6
I54
I0
tp22
(dp23
tp24
Rp25
sS'time'
p26
S'23:52:14'
p27
sS'date'
p28
S'02/23/14'
p29
sS'coin'
p30
S'ltc'
p31
sb.(itrades
trades
p0
(dp1
S'sell'
p2
cdecimal
Decimal
p3
(S'14.79'
p4
tp5
Rp6
sS'updated'
p7
cdatetime
datetime
p8
(S'\x07\xde\x02\x18\x00\x02\x0f\x00\x00\x00'
p9
tp10
Rp11
sS'buy'
p12
g3
(S'14.82'
p13
tp14
Rp15
sS'server_time'
p16
g8
(S'\x07\xde\x02\x18\x00\x02\x10\x00\x00\x00'
p17
tp18
Rp19
sS'time_object'
p20
ctime
struct_time
p21
((I2014
I2
I24
I0
I2
I15
I0
I55
I0
tp22
(dp23
tp24
Rp25
sS'time'
p26
S'00:02:15'
p27
sS'date'
p28
S'02/24/14'
p29
sS'coin'
p30
S'ltc'
p31
sb.(itrades
trades
p0
(dp1
S'sell'
p2
cdecimal
Decimal
p3
(S'14.70026'
p4
tp5
Rp6
sS'updated'
p7
cdatetime
datetime
p8
(S'\x07\xde\x02\x18\x00\x0c\x10\x00\x00\x00'
p9
tp10
Rp11
sS'buy'
p12
g3
(S'14.75'
p13
tp14
Rp15
sS'server_time'
p16
g8
(S'\x07\xde\x02\x18\x00\x0c\x11\x00\x00\x00'
p17
tp18
Rp19
sS'time_object'
p20
ctime
struct_time
p21
((I2014
I2
I24
I0
I12
I17
I0
I55
I0
tp22
(dp23
tp24
Rp25
sS'time'
p26
S'00:12:17'
p27
sS'date'
p28
S'02/24/14'
p29
sS'coin'
p30
S'ltc'
p31
sb.(itrades
trades
p0
(dp1
S'sell'
p2
cdecimal
Decimal
p3
(S'14.66'
p4
tp5
Rp6
sS'updated'
p7
cdatetime
datetime
p8
(S'\x07\xde\x02\x18\x00\x16\x12\x00\x00\x00'
p9
tp10
Rp11
sS'buy'
p12
g3
(S'14.7398'
p13
tp14
Rp15
sS'server_time'
p16
g8
(S'\x07\xde\x02\x18\x00\x16\x13\x00\x00\x00'
p17
tp18
Rp19
sS'time_object'
p20
ctime
struct_time
p21
((I2014
I2
I24
I0
I22
I19
I0
I55
I0
tp22
(dp23
tp24
Rp25
sS'time'
p26
S'00:22:19'
p27
sS'date'
p28
S'02/24/14'
p29
sS'coin'
p30
S'ltc'
p31
sb.(itrades
trades
p0
(dp1
S'sell'
p2
cdecimal
Decimal
p3
(S'14.7502'
p4
tp5
Rp6
sS'updated'
p7
cdatetime
datetime
p8
(S'\x07\xde\x02\x18\x00 \x13\x00\x00\x00'
p9
tp10
Rp11
sS'buy'
p12
g3
(S'14.75112'
p13
tp14
Rp15
sS'server_time'
p16
g8
(S'\x07\xde\x02\x18\x00 \x14\x00\x00\x00'
p17
tp18
Rp19
sS'time_object'
p20
ctime
struct_time
p21
((I2014
I2
I24
I0
I32
I20
I0
I55
I0
tp22
(dp23
tp24
Rp25
sS'time'
p26
S'00:32:20'
p27
sS'date'
p28
S'02/24/14'
p29
sS'coin'
p30
S'ltc'
p31
sb.(itrades
trades
p0
(dp1
S'sell'
p2
cdecimal
Decimal
p3
(S'14.7282'
p4
tp5
Rp6
sS'updated'
p7
cdatetime
datetime
p8
(S'\x07\xde\x02\x18\x00*\x16\x00\x00\x00'
p9
tp10
Rp11
sS'buy'
p12
g3
(S'14.74'
p13
tp14
Rp15
sS'server_time'
p16
g8
(S'\x07\xde\x02\x18\x00*\x16\x00\x00\x00'
p17
tp18
Rp19
sS'time_object'
p20
ctime
struct_time
p21
((I2014
I2
I24
I0
I42
I22
I0
I55
I0
tp22
(dp23
tp24
Rp25
sS'time'
p26
S'00:42:22'
p27
sS'date'
p28
S'02/24/14'
p29
sS'coin'
p30
S'ltc'
p31
sb.(itrades
trades
p0
(dp1
S'sell'
p2
cdecimal
Decimal
p3
(S'14.681'
p4
tp5
Rp6
sS'updated'
p7
cdatetime
datetime
p8
(S'\x07\xde\x02\x18\x004\x16\x00\x00\x00'
p9
tp10
Rp11
sS'buy'
p12
g3
(S'14.73'
p13
tp14
Rp15
sS'server_time'
p16
g8
(S'\x07\xde\x02\x18\x004\x18\x00\x00\x00'
p17
tp18
Rp19
sS'time_object'
p20
ctime
struct_time
p21
((I2014
I2
I24
I0
I52
I23
I0
I55
I0
tp22
(dp23
tp24
Rp25
sS'time'
p26
S'00:52:23'
p27
sS'date'
p28
S'02/24/14'
p29
sS'coin'
p30
S'ltc'
p31
sb.(itrades
trades
p0
(dp1
S'sell'
p2
cdecimal
Decimal
p3
(S'14.6602'
p4
tp5
Rp6
sS'updated'
p7
cdatetime
datetime
p8
(S'\x07\xde\x02\x18\x01\x02\x17\x00\x00\x00'
p9
tp10
Rp11
sS'buy'
p12
g3
(S'14.6641'
p13
tp14
Rp15
sS'server_time'
p16
g8
(S'\x07\xde\x02\x18\x01\x02\x19\x00\x00\x00'
p17
tp18
Rp19
sS'time_object'
p20
ctime
struct_time
p21
((I2014
I2
I24
I1
I2
I24
I0
I55
I0
tp22
(dp23
tp24
Rp25
sS'time'
p26
S'01:02:24'
p27
sS'date'
p28
S'02/24/14'
p29
sS'coin'
p30
S'ltc'
p31
sb.(itrades
trades
p0
(dp1
S'sell'
p2
cdecimal
Decimal
p3
(S'14.41'
p4
tp5
Rp6
sS'updated'
p7
cdatetime
datetime
p8
(S'\x07\xde\x02\x18\x01\x0c\x18\x00\x00\x00'
p9
tp10
Rp11
sS'buy'
p12
g3
(S'14.5'
p13
tp14
Rp15
sS'server_time'
p16
g8
(S'\x07\xde\x02\x18\x01\x0c\x19\x00\x00\x00'
p17
tp18
Rp19
sS'time_object'
p20
ctime
struct_time
p21
((I2014
I2
I24
I1
I12
I25
I0
I55
I0
tp22
(dp23
tp24
Rp25
sS'time'
p26
S'01:12:25'
p27
sS'date'
p28
S'02/24/14'
p29
sS'coin'
p30
S'ltc'
p31
sb.(itrades
trades
p0
(dp1
S'sell'
p2
cdecimal
Decimal
p3
(S'14.3801'
p4
tp5
Rp6
sS'updated'
p7
cdatetime
datetime
p8
(S'\x07\xde\x02\x18\x01\x16\x18\x00\x00\x00'
p9
tp10
Rp11
sS'buy'
p12
g3
(S'14.432'
p13
tp14
Rp15
sS'server_time'
p16
g8
(S'\x07\xde\x02\x18\x01\x16\x1a\x00\x00\x00'
p17
tp18
Rp19
sS'time_object'
p20
ctime
struct_time
p21
((I2014
I2
I24
I1
I22
I25
I0
I55
I0
tp22
(dp23
tp24
Rp25
sS'time'
p26
S'01:22:25'
p27
sS'date'
p28
S'02/24/14'
p29
sS'coin'
p30
S'ltc'
p31
sb.(itrades
trades
p0
(dp1
S'sell'
p2
cdecimal
Decimal
p3
(S'14.46999'
p4
tp5
Rp6
sS'updated'
p7
cdatetime
datetime
p8
(S'\x07\xde\x02\x18\x01 \x19\x00\x00\x00'
p9
tp10
Rp11
sS'buy'
p12
g3
(S'14.5'
p13
tp14
Rp15
sS'server_time'
p16
g8
(S'\x07\xde\x02\x18\x01 \x1b\x00\x00\x00'
p17
tp18
Rp19
sS'time_object'
p20
ctime
struct_time
p21
((I2014
I2
I24
I1
I32
I26
I0
I55
I0
tp22
(dp23
tp24
Rp25
sS'time'
p26
S'01:32:26'
p27
sS'date'
p28
S'02/24/14'
p29
sS'coin'
p30
S'ltc'
p31
sb.(itrades
trades
p0
(dp1
S'sell'
p2
cdecimal
Decimal
p3
(S'14.55'
p4
tp5
Rp6
sS'updated'
p7
cdatetime
datetime
p8
(S'\x07\xde\x02\x18\x01*\x1a\x00\x00\x00'
p9
tp10
Rp11
sS'buy'
p12
g3
(S'14.55794'
p13
tp14
Rp15
sS'server_time'
p16
g8
(S'\x07\xde\x02\x18\x01*\x1b\x00\x00\x00'
p17
tp18
Rp19
sS'time_object'
p20
ctime
struct_time
p21
((I2014
I2
I24
I1
I42
I27
I0
I55
I0
tp22
(dp23
tp24
Rp25
sS'time'
p26
S'01:42:27'
p27
sS'date'
p28
S'02/24/14'
p29
sS'coin'
p30
S'ltc'
p31
sb.(itrades
trades
p0
(dp1
S'sell'
p2
cdecimal
Decimal
p3
(S'14.432'
p4
tp5
Rp6
sS'updated'
p7
cdatetime
datetime
p8
(S'\x07\xde\x02\x18\x014\x1a\x00\x00\x00'
p9
tp10
Rp11
sS'buy'
p12
g3
(S'14.499'
p13
tp14
Rp15
sS'server_time'
p16
g8
(S'\x07\xde\x02\x18\x014\x1c\x00\x00\x00'
p17
tp18
Rp19
sS'time_object'
p20
ctime
struct_time
p21
((I2014
I2
I24
I1
I52
I28
I0
I55
I0
tp22
(dp23
tp24
Rp25
sS'time'
p26
S'01:52:28'
p27
sS'date'
p28
S'02/24/14'
p29
sS'coin'
p30
S'ltc'
p31
sb.(itrades
trades
p0
(dp1
S'sell'
p2
cdecimal
Decimal
p3
(S'14.381'
p4
tp5
Rp6
sS'updated'
p7
cdatetime
datetime
p8
(S'\x07\xde\x02\x18\x02\x02\x1b\x00\x00\x00'
p9
tp10
Rp11
sS'buy'
p12
g3
(S'14.42'
p13
tp14
Rp15
sS'server_time'
p16
g8
(S'\x07\xde\x02\x18\x02\x02\x1d\x00\x00\x00'
p17
tp18
Rp19
sS'time_object'
p20
ctime
struct_time
p21
((I2014
I2
I24
I2
I2
I28
I0
I55
I0
tp22
(dp23
tp24
Rp25
sS'time'
p26
S'02:02:28'
p27
sS'date'
p28
S'02/24/14'
p29
sS'coin'
p30
S'ltc'
p31
sb.(itrades
trades
p0
(dp1
S'sell'
p2
cdecimal
Decimal
p3
(S'14.4783'
p4
tp5
Rp6
sS'updated'
p7
cdatetime
datetime
p8
(S'\x07\xde\x02\x18\x02\x0c\x1c\x00\x00\x00'
p9
tp10
Rp11
sS'buy'
p12
g3
(S'14.489869'
p13
tp14
Rp15
sS'server_time'
p16
g8
(S'\x07\xde\x02\x18\x02\x0c\x1e\x00\x00\x00'
p17
tp18
Rp19
sS'time_object'
p20
ctime
struct_time
p21
((I2014
I2
I24
I2
I12
I29
I0
I55
I0
tp22
(dp23
tp24
Rp25
sS'time'
p26
S'02:12:29'
p27
sS'date'
p28
S'02/24/14'
p29
sS'coin'
p30
S'ltc'
p31
sb.(itrades
trades
p0
(dp1
S'sell'
p2
cdecimal
Decimal
p3
(S'14.59'
p4
tp5
Rp6
sS'updated'
p7
cdatetime
datetime
p8
(S'\x07\xde\x02\x18\x02\x16\x1c\x00\x00\x00'
p9
tp10
Rp11
sS'buy'
p12
g3
(S'14.591'
p13
tp14
Rp15
sS'server_time'
p16
g8
(S'\x07\xde\x02\x18\x02\x16\x1f\x00\x00\x00'
p17
tp18
Rp19
sS'time_object'
p20
ctime
struct_time
p21
((I2014
I2
I24
I2
I22
I30
I0
I55
I0
tp22
(dp23
tp24
Rp25
sS'time'
p26
S'02:22:30'
p27
sS'date'
p28
S'02/24/14'
p29
sS'coin'
p30
S'ltc'
p31
sb.(itrades
trades
p0
(dp1
S'sell'
p2
cdecimal
Decimal
p3
(S'14.6999'
p4
tp5
Rp6
sS'updated'
p7
cdatetime
datetime
p8
(S'\x07\xde\x02\x18\x02 \x1d\x00\x00\x00'
p9
tp10
Rp11
sS'buy'
p12
g3
(S'14.7'
p13
tp14
Rp15
sS'server_time'
p16
g8
(S'\x07\xde\x02\x18\x02 \x1f\x00\x00\x00'
p17
tp18
Rp19
sS'time_object'
p20
ctime
struct_time
p21
((I2014
I2
I24
I2
I32
I31
I0
I55
I0
tp22
(dp23
tp24
Rp25
sS'time'
p26
S'02:32:31'
p27
sS'date'
p28
S'02/24/14'
p29
sS'coin'
p30
S'ltc'
p31
sb.(itrades
trades
p0
(dp1
S'sell'
p2
cdecimal
Decimal
p3
(S'14.6045'
p4
tp5
Rp6
sS'updated'
p7
cdatetime
datetime
p8
(S'\x07\xde\x02\x18\x02*\x1e\x00\x00\x00'
p9
tp10
Rp11
sS'buy'
p12
g3
(S'14.7'
p13
tp14
Rp15
sS'server_time'
p16
g8
(S'\x07\xde\x02\x18\x02* \x00\x00\x00'
p17
tp18
Rp19
sS'time_object'
p20
ctime
struct_time
p21
((I2014
I2
I24
I2
I42
I31
I0
I55
I0
tp22
(dp23
tp24
Rp25
sS'time'
p26
S'02:42:31'
p27
sS'date'
p28
S'02/24/14'
p29
sS'coin'
p30
S'ltc'
p31
sb.(itrades
trades
p0
(dp1
S'sell'
p2
cdecimal
Decimal
p3
(S'14.68'
p4
tp5
Rp6
sS'updated'
p7
cdatetime
datetime
p8
(S'\x07\xde\x02\x18\x024\x1f\x00\x00\x00'
p9
tp10
Rp11
sS'buy'
p12
g3
(S'14.6802'
p13
tp14
Rp15
sS'server_time'
p16
g8
(S'\x07\xde\x02\x18\x024!\x00\x00\x00'
p17
tp18
Rp19
sS'time_object'
p20
ctime
struct_time
p21
((I2014
I2
I24
I2
I52
I32
I0
I55
I0
tp22
(dp23
tp24
Rp25
sS'time'
p26
S'02:52:32'
p27
sS'date'
p28
S'02/24/14'
p29
sS'coin'
p30
S'ltc'
p31
sb.(itrades
trades
p0
(dp1
S'sell'
p2
cdecimal
Decimal
p3
(S'14.6'
p4
tp5
Rp6
sS'updated'
p7
cdatetime
datetime
p8
(S'\x07\xde\x02\x18\x03\x02!\x00\x00\x00'
p9
tp10
Rp11
sS'buy'
p12
g3
(S'14.68886'
p13
tp14
Rp15
sS'server_time'
p16
g8
(S'\x07\xde\x02\x18\x03\x02"\x00\x00\x00'
p17
tp18
Rp19
sS'time_object'
p20
ctime
struct_time
p21
((I2014
I2
I24
I3
I2
I33
I0
I55
I0
tp22
(dp23
tp24
Rp25
sS'time'
p26
S'03:02:33'
p27
sS'date'
p28
S'02/24/14'
p29
sS'coin'
p30
S'ltc'
p31
sb.(itrades
trades
p0
(dp1
S'sell'
p2
cdecimal
Decimal
p3
(S'14.6011'
p4
tp5
Rp6
sS'updated'
p7
cdatetime
datetime
p8
(S'\x07\xde\x02\x18\x03\x0c"\x00\x00\x00'
p9
tp10
Rp11
sS'buy'
p12
g3
(S'14.61'
p13
tp14
Rp15
sS'server_time'
p16
g8
(S'\x07\xde\x02\x18\x03\x0c#\x00\x00\x00'
p17
tp18
Rp19
sS'time_object'
p20
ctime
struct_time
p21
((I2014
I2
I24
I3
I12
I35
I0
I55
I0
tp22
(dp23
tp24
Rp25
sS'time'
p26
S'03:12:35'
p27
sS'date'
p28
S'02/24/14'
p29
sS'coin'
p30
S'ltc'
p31
sb.(itrades
trades
p0
(dp1
S'sell'
p2
cdecimal
Decimal
p3
(S'14.58'
p4
tp5
Rp6
sS'updated'
p7
cdatetime
datetime
p8
(S"\x07\xde\x02\x18\x03\x16'\x00\x00\x00"
p9
tp10
Rp11
sS'buy'
p12
g3
(S'14.6'
p13
tp14
Rp15
sS'server_time'
p16
g8
(S'\x07\xde\x02\x18\x03\x16(\x00\x00\x00'
p17
tp18
Rp19
sS'time_object'
p20
ctime
struct_time
p21
((I2014
I2
I24
I3
I22
I39
I0
I55
I0
tp22
(dp23
tp24
Rp25
sS'time'
p26
S'03:22:39'
p27
sS'date'
p28
S'02/24/14'
p29
sS'coin'
p30
S'ltc'
p31
sb.(itrades
trades
p0
(dp1
S'sell'
p2
cdecimal
Decimal
p3
(S'14.6'
p4
tp5
Rp6
sS'updated'
p7
cdatetime
datetime
p8
(S"\x07\xde\x02\x18\x03 '\x00\x00\x00"
p9
tp10
Rp11
sS'buy'
p12
g3
(S'14.63991'
p13
tp14
Rp15
sS'server_time'
p16
g8
(S'\x07\xde\x02\x18\x03 (\x00\x00\x00'
p17
tp18
Rp19
sS'time_object'
p20
ctime
struct_time
p21
((I2014
I2
I24
I3
I32
I40
I0
I55
I0
tp22
(dp23
tp24
Rp25
sS'time'
p26
S'03:32:40'
p27
sS'date'
p28
S'02/24/14'
p29
sS'coin'
p30
S'ltc'
p31
sb.(itrades
trades
p0
(dp1
S'sell'
p2
cdecimal
Decimal
p3
(S'14.63'
p4
tp5
Rp6
sS'updated'
p7
cdatetime
datetime
p8
(S'\x07\xde\x02\x18\x03*(\x00\x00\x00'
p9
tp10
Rp11
sS'buy'
p12
g3
(S'14.63002'
p13
tp14
Rp15
sS'server_time'
p16
g8
(S'\x07\xde\x02\x18\x03**\x00\x00\x00'
p17
tp18
Rp19
sS'time_object'
p20
ctime
struct_time
p21
((I2014
I2
I24
I3
I42
I41
I0
I55
I0
tp22
(dp23
tp24
Rp25
sS'time'
p26
S'03:42:41'
p27
sS'date'
p28
S'02/24/14'
p29
sS'coin'
p30
S'ltc'
p31
sb.(itrades
trades
p0
(dp1
S'sell'
p2
cdecimal
Decimal
p3
(S'14.6'
p4
tp5
Rp6
sS'updated'
p7
cdatetime
datetime
p8
(S'\x07\xde\x02\x18\x034)\x00\x00\x00'
p9
tp10
Rp11
sS'buy'
p12
g3
(S'14.626'
p13
tp14
Rp15
sS'server_time'
p16
g8
(S'\x07\xde\x02\x18\x034*\x00\x00\x00'
p17
tp18
Rp19
sS'time_object'
p20
ctime
struct_time
p21
((I2014
I2
I24
I3
I52
I42
I0
I55
I0
tp22
(dp23
tp24
Rp25
sS'time'
p26
S'03:52:42'
p27
sS'date'
p28
S'02/24/14'
p29
sS'coin'
p30
S'ltc'
p31
sb.(itrades
trades
p0
(dp1
S'sell'
p2
cdecimal
Decimal
p3
(S'14.7'
p4
tp5
Rp6
sS'updated'
p7
cdatetime
datetime
p8
(S'\x07\xde\x02\x18\x04\x02)\x00\x00\x00'
p9
tp10
Rp11
sS'buy'
p12
g3
(S'14.7188'
p13
tp14
Rp15
sS'server_time'
p16
g8
(S'\x07\xde\x02\x18\x04\x02+\x00\x00\x00'
p17
tp18
Rp19
sS'time_object'
p20
ctime
struct_time
p21
((I2014
I2
I24
I4
I2
I42
I0
I55
I0
tp22
(dp23
tp24
Rp25
sS'time'
p26
S'04:02:42'
p27
sS'date'
p28
S'02/24/14'
p29
sS'coin'
p30
S'ltc'
p31
sb.(itrades
trades
p0
(dp1
S'sell'
p2
cdecimal
Decimal
p3
(S'14.8'
p4
tp5
Rp6
sS'updated'
p7
cdatetime
datetime
p8
(S'\x07\xde\x02\x18\x04\x0c*\x00\x00\x00'
p9
tp10
Rp11
sS'buy'
p12
g3
(S'14.805387'
p13
tp14
Rp15
sS'server_time'
p16
g8
(S'\x07\xde\x02\x18\x04\x0c,\x00\x00\x00'
p17
tp18
Rp19
sS'time_object'
p20
ctime
struct_time
p21
((I2014
I2
I24
I4
I12
I43
I0
I55
I0
tp22
(dp23
tp24
Rp25
sS'time'
p26
S'04:12:43'
p27
sS'date'
p28
S'02/24/14'
p29
sS'coin'
p30
S'ltc'
p31
sb.(itrades
trades
p0
(dp1
S'sell'
p2
cdecimal
Decimal
p3
(S'14.65'
p4
tp5
Rp6
sS'updated'
p7
cdatetime
datetime
p8
(S'\x07\xde\x02\x18\x04\x16+\x00\x00\x00'
p9
tp10
Rp11
sS'buy'
p12
g3
(S'14.7'
p13
tp14
Rp15
sS'server_time'
p16
g8
(S'\x07\xde\x02\x18\x04\x16-\x00\x00\x00'
p17
tp18
Rp19
sS'time_object'
p20
ctime
struct_time
p21
((I2014
I2
I24
I4
I22
I45
I0
I55
I0
tp22
(dp23
tp24
Rp25
sS'time'
p26
S'04:22:45'
p27
sS'date'
p28
S'02/24/14'
p29
sS'coin'
p30
S'ltc'
p31
sb.(itrades
trades
p0
(dp1
S'sell'
p2
cdecimal
Decimal
p3
(S'14.579'
p4
tp5
Rp6
sS'updated'
p7
cdatetime
datetime
p8
(S'\x07\xde\x02\x18\x04 -\x00\x00\x00'
p9
tp10
Rp11
sS'buy'
p12
g3
(S'14.65'
p13
tp14
Rp15
sS'server_time'
p16
g8
(S'\x07\xde\x02\x18\x04 /\x00\x00\x00'
p17
tp18
Rp19
sS'time_object'
p20
ctime
struct_time
p21
((I2014
I2
I24
I4
I32
I46
I0
I55
I0
tp22
(dp23
tp24
Rp25
sS'time'
p26
S'04:32:46'
p27
sS'date'
p28
S'02/24/14'
p29
sS'coin'
p30
S'ltc'
p31
sb.(itrades
trades
p0
(dp1
S'sell'
p2
cdecimal
Decimal
p3
(S'14.611991'
p4
tp5
Rp6
sS'updated'
p7
cdatetime
datetime
p8
(S'\x07\xde\x02\x18\x04*.\x00\x00\x00'
p9
tp10
Rp11
sS'buy'
p12
g3
(S'14.63'
p13
tp14
Rp15
sS'server_time'
p16
g8
(S'\x07\xde\x02\x18\x04*/\x00\x00\x00'
p17
tp18
Rp19
sS'time_object'
p20
ctime
struct_time
p21
((I2014
I2
I24
I4
I42
I47
I0
I55
I0
tp22
(dp23
tp24
Rp25
sS'time'
p26
S'04:42:47'
p27
sS'date'
p28
S'02/24/14'
p29
sS'coin'
p30
S'ltc'
p31
sb.(itrades
trades
p0
(dp1
S'sell'
p2
cdecimal
Decimal
p3
(S'14.7523'
p4
tp5
Rp6
sS'updated'
p7
cdatetime
datetime
p8
(S'\x07\xde\x02\x18\x0441\x00\x00\x00'
p9
tp10
Rp11
sS'buy'
p12
g3
(S'14.7525'
p13
tp14
Rp15
sS'server_time'
p16
g8
(S'\x07\xde\x02\x18\x0442\x00\x00\x00'
p17
tp18
Rp19
sS'time_object'
p20
ctime
struct_time
p21
((I2014
I2
I24
I4
I52
I49
I0
I55
I0
tp22
(dp23
tp24
Rp25
sS'time'
p26
S'04:52:49'
p27
sS'date'
p28
S'02/24/14'
p29
sS'coin'
p30
S'ltc'
p31
sb.(itrades
trades
p0
(dp1
S'sell'
p2
cdecimal
Decimal
p3
(S'14.620384'
p4
tp5
Rp6
sS'updated'
p7
cdatetime
datetime
p8
(S'\x07\xde\x02\x18\x05\x021\x00\x00\x00'
p9
tp10
Rp11
sS'buy'
p12
g3
(S'14.74842'
p13
tp14
Rp15
sS'server_time'
p16
g8
(S'\x07\xde\x02\x18\x05\x023\x00\x00\x00'
p17
tp18
Rp19
sS'time_object'
p20
ctime
struct_time
p21
((I2014
I2
I24
I5
I2
I50
I0
I55
I0
tp22
(dp23
tp24
Rp25
sS'time'
p26
S'05:02:50'
p27
sS'date'
p28
S'02/24/14'
p29
sS'coin'
p30
S'ltc'
p31
sb.(itrades
trades
p0
(dp1
S'sell'
p2
cdecimal
Decimal
p3
(S'14.651'
p4
tp5
Rp6
sS'updated'
p7
cdatetime
datetime
p8
(S'\x07\xde\x02\x18\x05\x0c2\x00\x00\x00'
p9
tp10
Rp11
sS'buy'
p12
g3
(S'14.71'
p13
tp14
Rp15
sS'server_time'
p16
g8
(S'\x07\xde\x02\x18\x05\x0c4\x00\x00\x00'
p17
tp18
Rp19
sS'time_object'
p20
ctime
struct_time
p21
((I2014
I2
I24
I5
I12
I52
I0
I55
I0
tp22
(dp23
tp24
Rp25
sS'time'
p26
S'05:12:52'
p27
sS'date'
p28
S'02/24/14'
p29
sS'coin'
p30
S'ltc'
p31
sb.(itrades
trades
p0
(dp1
S'sell'
p2
cdecimal
Decimal
p3
(S'14.7'
p4
tp5
Rp6
sS'updated'
p7
cdatetime
datetime
p8
(S'\x07\xde\x02\x18\x05\x164\x00\x00\x00'
p9
tp10
Rp11
sS'buy'
p12
g3
(S'14.7247'
p13
tp14
Rp15
sS'server_time'
p16
g8
(S'\x07\xde\x02\x18\x05\x165\x00\x00\x00'
p17
tp18
Rp19
sS'time_object'
p20
ctime
struct_time
p21
((I2014
I2
I24
I5
I22
I52
I0
I55
I0
tp22
(dp23
tp24
Rp25
sS'time'
p26
S'05:22:52'
p27
sS'date'
p28
S'02/24/14'
p29
sS'coin'
p30
S'ltc'
p31
sb.(itrades
trades
p0
(dp1
S'sell'
p2
cdecimal
Decimal
p3
(S'14.67001'
p4
tp5
Rp6
sS'updated'
p7
cdatetime
datetime
p8
(S'\x07\xde\x02\x18\x05 5\x00\x00\x00'
p9
tp10
Rp11
sS'buy'
p12
g3
(S'14.747999'
p13
tp14
Rp15
sS'server_time'
p16
g8
(S'\x07\xde\x02\x18\x05 6\x00\x00\x00'
p17
tp18
Rp19
sS'time_object'
p20
ctime
struct_time
p21
((I2014
I2
I24
I5
I32
I54
I0
I55
I0
tp22
(dp23
tp24
Rp25
sS'time'
p26
S'05:32:54'
p27
sS'date'
p28
S'02/24/14'
p29
sS'coin'
p30
S'ltc'
p31
sb.(itrades
trades
p0
(dp1
S'sell'
p2
cdecimal
Decimal
p3
(S'14.7002'
p4
tp5
Rp6
sS'updated'
p7
cdatetime
datetime
p8
(S'\x07\xde\x02\x18\x05*6\x00\x00\x00'
p9
tp10
Rp11
sS'buy'
p12
g3
(S'14.798799'
p13
tp14
Rp15
sS'server_time'
p16
g8
(S'\x07\xde\x02\x18\x05*8\x00\x00\x00'
p17
tp18
Rp19
sS'time_object'
p20
ctime
struct_time
p21
((I2014
I2
I24
I5
I42
I55
I0
I55
I0
tp22
(dp23
tp24
Rp25
sS'time'
p26
S'05:42:55'
p27
sS'date'
p28
S'02/24/14'
p29
sS'coin'
p30
S'ltc'
p31
sb.(itrades
trades
p0
(dp1
S'sell'
p2
cdecimal
Decimal
p3
(S'14.69'
p4
tp5
Rp6
sS'updated'
p7
cdatetime
datetime
p8
(S'\x07\xde\x02\x18\x0546\x00\x00\x00'
p9
tp10
Rp11
sS'buy'
p12
g3
(S'14.76'
p13
tp14
Rp15
sS'server_time'
p16
g8
(S'\x07\xde\x02\x18\x0549\x00\x00\x00'
p17
tp18
Rp19
sS'time_object'
p20
ctime
struct_time
p21
((I2014
I2
I24
I5
I52
I56
I0
I55
I0
tp22
(dp23
tp24
Rp25
sS'time'
p26
S'05:52:56'
p27
sS'date'
p28
S'02/24/14'
p29
sS'coin'
p30
S'ltc'
p31
sb.(itrades
trades
p0
(dp1
S'sell'
p2
cdecimal
Decimal
p3
(S'14.84'
p4
tp5
Rp6
sS'updated'
p7
cdatetime
datetime
p8
(S'\x07\xde\x02\x18\x06\x027\x00\x00\x00'
p9
tp10
Rp11
sS'buy'
p12
g3
(S'14.899899'
p13
tp14
Rp15
sS'server_time'
p16
g8
(S'\x07\xde\x02\x18\x06\x029\x00\x00\x00'
p17
tp18
Rp19
sS'time_object'
p20
ctime
struct_time
p21
((I2014
I2
I24
I6
I2
I57
I0
I55
I0
tp22
(dp23
tp24
Rp25
sS'time'
p26
S'06:02:57'
p27
sS'date'
p28
S'02/24/14'
p29
sS'coin'
p30
S'ltc'
p31
sb.(itrades
trades
p0
(dp1
S'sell'
p2
cdecimal
Decimal
p3
(S'14.811001'
p4
tp5
Rp6
sS'updated'
p7
cdatetime
datetime
p8
(S'\x07\xde\x02\x18\x06\x0c8\x00\x00\x00'
p9
tp10
Rp11
sS'buy'
p12
g3
(S'14.8999'
p13
tp14
Rp15
sS'server_time'
p16
g8
(S'\x07\xde\x02\x18\x06\x0c:\x00\x00\x00'
p17
tp18
Rp19
sS'time_object'
p20
ctime
struct_time
p21
((I2014
I2
I24
I6
I12
I57
I0
I55
I0
tp22
(dp23
tp24
Rp25
sS'time'
p26
S'06:12:57'
p27
sS'date'
p28
S'02/24/14'
p29
sS'coin'
p30
S'ltc'
p31
sb.(itrades
trades
p0
(dp1
S'sell'
p2
cdecimal
Decimal
p3
(S'14.816'
p4
tp5
Rp6
sS'updated'
p7
cdatetime
datetime
p8
(S'\x07\xde\x02\x18\x06\x169\x00\x00\x00'
p9
tp10
Rp11
sS'buy'
p12
g3
(S'14.8973'
p13
tp14
Rp15
sS'server_time'
p16
g8
(S'\x07\xde\x02\x18\x06\x16:\x00\x00\x00'
p17
tp18
Rp19
sS'time_object'
p20
ctime
struct_time
p21
((I2014
I2
I24
I6
I22
I58
I0
I55
I0
tp22
(dp23
tp24
Rp25
sS'time'
p26
S'06:22:58'
p27
sS'date'
p28
S'02/24/14'
p29
sS'coin'
p30
S'ltc'
p31
sb.(itrades
trades
p0
(dp1
S'sell'
p2
cdecimal
Decimal
p3
(S'14.87933'
p4
tp5
Rp6
sS'updated'
p7
cdatetime
datetime
p8
(S'\x07\xde\x02\x18\x06 ;\x00\x00\x00'
p9
tp10
Rp11
sS'buy'
p12
g3
(S'14.8795'
p13
tp14
Rp15
sS'server_time'
p16
g8
(S'\x07\xde\x02\x18\x06!\x00\x00\x00\x00'
p17
tp18
Rp19
sS'time_object'
p20
ctime
struct_time
p21
((I2014
I2
I24
I6
I33
I0
I0
I55
I0
tp22
(dp23
tp24
Rp25
sS'time'
p26
S'06:33:00'
p27
sS'date'
p28
S'02/24/14'
p29
sS'coin'
p30
S'ltc'
p31
sb.(itrades
trades
p0
(dp1
S'sell'
p2
cdecimal
Decimal
p3
(S'14.8001'
p4
tp5
Rp6
sS'updated'
p7
cdatetime
datetime
p8
(S'\x07\xde\x02\x18\x06+\x02\x00\x00\x00'
p9
tp10
Rp11
sS'buy'
p12
g3
(S'14.84'
p13
tp14
Rp15
sS'server_time'
p16
g8
(S'\x07\xde\x02\x18\x06+\x04\x00\x00\x00'
p17
tp18
Rp19
sS'time_object'
p20
ctime
struct_time
p21
((I2014
I2
I24
I6
I43
I3
I0
I55
I0
tp22
(dp23
tp24
Rp25
sS'time'
p26
S'06:43:03'
p27
sS'date'
p28
S'02/24/14'
p29
sS'coin'
p30
S'ltc'
p31
sb.(itrades
trades
p0
(dp1
S'sell'
p2
cdecimal
Decimal
p3
(S'14.84'
p4
tp5
Rp6
sS'updated'
p7
cdatetime
datetime
p8
(S'\x07\xde\x02\x18\x065\x03\x00\x00\x00'
p9
tp10
Rp11
sS'buy'
p12
g3
(S'14.9'
p13
tp14
Rp15
sS'server_time'
p16
g8
(S'\x07\xde\x02\x18\x065\x05\x00\x00\x00'
p17
tp18
Rp19
sS'time_object'
p20
ctime
struct_time
p21
((I2014
I2
I24
I6
I53
I4
I0
I55
I0
tp22
(dp23
tp24
Rp25
sS'time'
p26
S'06:53:(itrades
trades
p0
(dp1
S'sell'
p2
cdecimal
Decimal
p3
(S'14.79001'
p4
tp5
Rp6
sS'updated'
p7
cdatetime
datetime
p8
(S"\x07\xde\x02\x18\x08\x14'\x00\x00\x00"
p9
tp10
Rp11
sS'buy'
p12
g3
(S'14.85'
p13
tp14
Rp15
sS'server_time'
p16
g8
(S'\x07\xde\x02\x18\x08\x14)\x00\x00\x00'
p17
tp18
Rp19
sS'time_object'
p20
ctime
struct_time
p21
((I2014
I2
I24
I8
I20
I40
I0
I55
I0
tp22
(dp23
tp24
Rp25
sS'time'
p26
S'08:20:40'
p27
sS'date'
p28
S'02/24/14'
p29
sS'coin'
p30
S'ltc'
p31
sb.