(itrades
trades
p0
(dp1
S'sell'
p2
cdecimal
Decimal
p3
(S'580.919'
p4
tp5
Rp6
sS'updated'
p7
cdatetime
datetime
p8
(S"\x07\xde\x02\x18\x08\x14'\x00\x00\x00"
p9
tp10
Rp11
sS'buy'
p12
g3
(S'581.67'
p13
tp14
Rp15
sS'server_time'
p16
g8
(S"\x07\xde\x02\x18\x08\x14'\x00\x00\x00"
p17
tp18
Rp19
sS'time_object'
p20
ctime
struct_time
p21
((I2014
I2
I24
I8
I20
I38
I0
I55
I0
tp22
(dp23
tp24
Rp25
sS'time'
p26
S'08:20:38'
p27
sS'date'
p28
S'02/24/14'
p29
sS'coin'
p30
S'ltc'
p31
sb.