(itrades
trades
p0
(dp1
S'sell'
p2
cdecimal
Decimal
p3
(S'0.0253'
p4
tp5
Rp6
sS'updated'
p7
cdatetime
datetime
p8
(S'\x07\xde\x02\x17\x12\x01\x08\x00\x00\x00'
p9
tp10
Rp11
sS'buy'
p12
g3
(S'0.02541'
p13
tp14
Rp15
sS'server_time'
p16
g8
(S'\x07\xde\x02\x17\x12\x01\n\x00\x00\x00'
p17
tp18
Rp19
sS'time_object'
p20
ctime
struct_time
p21
((I2014
I2
I23
I18
I1
I9
I6
I54
I0
tp22
(dp23
tp24
Rp25
sS'time'
p26
S'18:01:09'
p27
sS'date'
p28
S'02/23/14'
p29
sS'coin'
p30
S'ltc'
p31
sb.(itrades
trades
p0
(dp1
S'sell'
p2
cdecimal
Decimal
p3
(S'0.02541'
p4
tp5
Rp6
sS'updated'
p7
cdatetime
datetime
p8
(S'\x07\xde\x02\x17\x12\x0b\n\x00\x00\x00'
p9
tp10
Rp11
sS'buy'
p12
g3
(S'0.02542'
p13
tp14
Rp15
sS'server_time'
p16
g8
(S'\x07\xde\x02\x17\x12\x0b\r\x00\x00\x00'
p17
tp18
Rp19
sS'time_object'
p20
ctime
struct_time
p21
((I2014
I2
I23
I18
I11
I12
I6
I54
I0
tp22
(dp23
tp24
Rp25
sS'time'
p26
S'18:11:12'
p27
sS'date'
p28
S'02/23/14'
p29
sS'coin'
p30
S'ltc'
p31
sb.(itrades
trades
p0
(dp1
S'sell'
p2
cdecimal
Decimal
p3
(S'0.02541'
p4
tp5
Rp6
sS'updated'
p7
cdatetime
datetime
p8
(S'\x07\xde\x02\x17\x12\x15\x0f\x00\x00\x00'
p9
tp10
Rp11
sS'buy'
p12
g3
(S'0.02544'
p13
tp14
Rp15
sS'server_time'
p16
g8
(S'\x07\xde\x02\x17\x12\x15\x0f\x00\x00\x00'
p17
tp18
Rp19
sS'time_object'
p20
ctime
struct_time
p21
((I2014
I2
I23
I18
I21
I15
I6
I54
I0
tp22
(dp23
tp24
Rp25
sS'time'
p26
S'18:21:15'
p27
sS'date'
p28
S'02/23/14'
p29
sS'coin'
p30
S'ltc'
p31
sb.(itrades
trades
p0
(dp1
S'sell'
p2
cdecimal
Decimal
p3
(S'0.02538'
p4
tp5
Rp6
sS'updated'
p7
cdatetime
datetime
p8
(S'\x07\xde\x02\x17\x12\x1f\x12\x00\x00\x00'
p9
tp10
Rp11
sS'buy'
p12
g3
(S'0.02544'
p13
tp14
Rp15
sS'server_time'
p16
g8
(S'\x07\xde\x02\x17\x12\x1f\x13\x00\x00\x00'
p17
tp18
Rp19
sS'time_object'
p20
ctime
struct_time
p21
((I2014
I2
I23
I18
I31
I18
I6
I54
I0
tp22
(dp23
tp24
Rp25
sS'time'
p26
S'18:31:18'
p27
sS'date'
p28
S'02/23/14'
p29
sS'coin'
p30
S'ltc'
p31
sb.(itrades
trades
p0
(dp1
S'sell'
p2
cdecimal
Decimal
p3
(S'0.02546'
p4
tp5
Rp6
sS'updated'
p7
cdatetime
datetime
p8
(S'\x07\xde\x02\x17\x12)\x14\x00\x00\x00'
p9
tp10
Rp11
sS'buy'
p12
g3
(S'0.02547'
p13
tp14
Rp15
sS'server_time'
p16
g8
(S'\x07\xde\x02\x17\x12)\x14\x00\x00\x00'
p17
tp18
Rp19
sS'time_object'
p20
ctime
struct_time
p21
((I2014
I2
I23
I18
I41
I20
I6
I54
I0
tp22
(dp23
tp24
Rp25
sS'time'
p26
S'18:41:20'
p27
sS'date'
p28
S'02/23/14'
p29
sS'coin'
p30
S'ltc'
p31
sb.(itrades
trades
p0
(dp1
S'sell'
p2
cdecimal
Decimal
p3
(S'0.02546'
p4
tp5
Rp6
sS'updated'
p7
cdatetime
datetime
p8
(S'\x07\xde\x02\x17\x123\x17\x00\x00\x00'
p9
tp10
Rp11
sS'buy'
p12
g3
(S'0.02548'
p13
tp14
Rp15
sS'server_time'
p16
g8
(S'\x07\xde\x02\x17\x123\x18\x00\x00\x00'
p17
tp18
Rp19
sS'time_object'
p20
ctime
struct_time
p21
((I2014
I2
I23
I18
I51
I24
I6
I54
I0
tp22
(dp23
tp24
Rp25
sS'time'
p26
S'18:51:24'
p27
sS'date'
p28
S'02/23/14'
p29
sS'coin'
p30
S'ltc'
p31
sb.(itrades
trades
p0
(dp1
S'sell'
p2
cdecimal
Decimal
p3
(S'0.02547'
p4
tp5
Rp6
sS'updated'
p7
cdatetime
datetime
p8
(S'\x07\xde\x02\x17\x13\x01\x17\x00\x00\x00'
p9
tp10
Rp11
sS'buy'
p12
g3
(S'0.02551'
p13
tp14
Rp15
sS'server_time'
p16
g8
(S'\x07\xde\x02\x17\x13\x01\x19\x00\x00\x00'
p17
tp18
Rp19
sS'time_object'
p20
ctime
struct_time
p21
((I2014
I2
I23
I19
I1
I24
I6
I54
I0
tp22
(dp23
tp24
Rp25
sS'time'
p26
S'19:01:24'
p27
sS'date'
p28
S'02/23/14'
p29
sS'coin'
p30
S'ltc'
p31
sb.(itrades
trades
p0
(dp1
S'sell'
p2
cdecimal
Decimal
p3
(S'0.0255'
p4
tp5
Rp6
sS'updated'
p7
cdatetime
datetime
p8
(S'\x07\xde\x02\x17\x13\x0b\x1a\x00\x00\x00'
p9
tp10
Rp11
sS'buy'
p12
g3
(S'0.02554'
p13
tp14
Rp15
sS'server_time'
p16
g8
(S'\x07\xde\x02\x17\x13\x0b\x1a\x00\x00\x00'
p17
tp18
Rp19
sS'time_object'
p20
ctime
struct_time
p21
((I2014
I2
I23
I19
I11
I26
I6
I54
I0
tp22
(dp23
tp24
Rp25
sS'time'
p26
S'19:11:26'
p27
sS'date'
p28
S'02/23/14'
p29
sS'coin'
p30
S'ltc'
p31
sb.(itrades
trades
p0
(dp1
S'sell'
p2
cdecimal
Decimal
p3
(S'0.02546'
p4
tp5
Rp6
sS'updated'
p7
cdatetime
datetime
p8
(S'\x07\xde\x02\x17\x13\x15\x1b\x00\x00\x00'
p9
tp10
Rp11
sS'buy'
p12
g3
(S'0.02555'
p13
tp14
Rp15
sS'server_time'
p16
g8
(S'\x07\xde\x02\x17\x13\x15\x1b\x00\x00\x00'
p17
tp18
Rp19
sS'time_object'
p20
ctime
struct_time
p21
((I2014
I2
I23
I19
I21
I27
I6
I54
I0
tp22
(dp23
tp24
Rp25
sS'time'
p26
S'19:21:27'
p27
sS'date'
p28
S'02/23/14'
p29
sS'coin'
p30
S'ltc'
p31
sb.(itrades
trades
p0
(dp1
S'sell'
p2
cdecimal
Decimal
p3
(S'0.02535'
p4
tp5
Rp6
sS'updated'
p7
cdatetime
datetime
p8
(S'\x07\xde\x02\x17\x13\x1f\x1b\x00\x00\x00'
p9
tp10
Rp11
sS'buy'
p12
g3
(S'0.02551'
p13
tp14
Rp15
sS'server_time'
p16
g8
(S'\x07\xde\x02\x17\x13\x1f\x1c\x00\x00\x00'
p17
tp18
Rp19
sS'time_object'
p20
ctime
struct_time
p21
((I2014
I2
I23
I19
I31
I27
I6
I54
I0
tp22
(dp23
tp24
Rp25
sS'time'
p26
S'19:31:27'
p27
sS'date'
p28
S'02/23/14'
p29
sS'coin'
p30
S'ltc'
p31
sb.(itrades
trades
p0
(dp1
S'sell'
p2
cdecimal
Decimal
p3
(S'0.02545'
p4
tp5
Rp6
sS'updated'
p7
cdatetime
datetime
p8
(S'\x07\xde\x02\x17\x13)\x1c\x00\x00\x00'
p9
tp10
Rp11
sS'buy'
p12
g3
(S'0.0255'
p13
tp14
Rp15
sS'server_time'
p16
g8
(S'\x07\xde\x02\x17\x13)\x1e\x00\x00\x00'
p17
tp18
Rp19
sS'time_object'
p20
ctime
struct_time
p21
((I2014
I2
I23
I19
I41
I29
I6
I54
I0
tp22
(dp23
tp24
Rp25
sS'time'
p26
S'19:41:29'
p27
sS'date'
p28
S'02/23/14'
p29
sS'coin'
p30
S'ltc'
p31
sb.(itrades
trades
p0
(dp1
S'sell'
p2
cdecimal
Decimal
p3
(S'0.02537'
p4
tp5
Rp6
sS'updated'
p7
cdatetime
datetime
p8
(S'\x07\xde\x02\x17\x133\x1d\x00\x00\x00'
p9
tp10
Rp11
sS'buy'
p12
g3
(S'0.02555'
p13
tp14
Rp15
sS'server_time'
p16
g8
(S'\x07\xde\x02\x17\x133\x1f\x00\x00\x00'
p17
tp18
Rp19
sS'time_object'
p20
ctime
struct_time
p21
((I2014
I2
I23
I19
I51
I30
I6
I54
I0
tp22
(dp23
tp24
Rp25
sS'time'
p26
S'19:51:30'
p27
sS'date'
p28
S'02/23/14'
p29
sS'coin'
p30
S'ltc'
p31
sb.(itrades
trades
p0
(dp1
S'sell'
p2
cdecimal
Decimal
p3
(S'0.02532'
p4
tp5
Rp6
sS'updated'
p7
cdatetime
datetime
p8
(S'\x07\xde\x02\x17\x14\x01\x1d\x00\x00\x00'
p9
tp10
Rp11
sS'buy'
p12
g3
(S'0.02547'
p13
tp14
Rp15
sS'server_time'
p16
g8
(S'\x07\xde\x02\x17\x14\x01 \x00\x00\x00'
p17
tp18
Rp19
sS'time_object'
p20
ctime
struct_time
p21
((I2014
I2
I23
I20
I1
I36
I6
I54
I0
tp22
(dp23
tp24
Rp25
sS'time'
p26
S'20:01:36'
p27
sS'date'
p28
S'02/23/14'
p29
sS'coin'
p30
S'ltc'
p31
sb.(itrades
trades
p0
(dp1
S'sell'
p2
cdecimal
Decimal
p3
(S'0.02533'
p4
tp5
Rp6
sS'updated'
p7
cdatetime
datetime
p8
(S'\x07\xde\x02\x17\x14\x0b&\x00\x00\x00'
p9
tp10
Rp11
sS'buy'
p12
g3
(S'0.02545'
p13
tp14
Rp15
sS'server_time'
p16
g8
(S'\x07\xde\x02\x17\x14\x0b&\x00\x00\x00'
p17
tp18
Rp19
sS'time_object'
p20
ctime
struct_time
p21
((I2014
I2
I23
I20
I11
I38
I6
I54
I0
tp22
(dp23
tp24
Rp25
sS'time'
p26
S'20:11:38'
p27
sS'date'
p28
S'02/23/14'
p29
sS'coin'
p30
S'ltc'
p31
sb.(itrades
trades
p0
(dp1
S'sell'
p2
cdecimal
Decimal
p3
(S'0.0253'
p4
tp5
Rp6
sS'updated'
p7
cdatetime
datetime
p8
(S"\x07\xde\x02\x17\x14\x15'\x00\x00\x00"
p9
tp10
Rp11
sS'buy'
p12
g3
(S'0.02538'
p13
tp14
Rp15
sS'server_time'
p16
g8
(S'\x07\xde\x02\x17\x14\x15)\x00\x00\x00'
p17
tp18
Rp19
sS'time_object'
p20
ctime
struct_time
p21
((I2014
I2
I23
I20
I21
I40
I6
I54
I0
tp22
(dp23
tp24
Rp25
sS'time'
p26
S'20:21:40'
p27
sS'date'
p28
S'02/23/14'
p29
sS'coin'
p30
S'ltc'
p31
sb.(itrades
trades
p0
(dp1
S'sell'
p2
cdecimal
Decimal
p3
(S'0.0253'
p4
tp5
Rp6
sS'updated'
p7
cdatetime
datetime
p8
(S'\x07\xde\x02\x17\x14\x1f)\x00\x00\x00'
p9
tp10
Rp11
sS'buy'
p12
g3
(S'0.02539'
p13
tp14
Rp15
sS'server_time'
p16
g8
(S'\x07\xde\x02\x17\x14\x1f)\x00\x00\x00'
p17
tp18
Rp19
sS'time_object'
p20
ctime
struct_time
p21
((I2014
I2
I23
I20
I31
I41
I6
I54
I0
tp22
(dp23
tp24
Rp25
sS'time'
p26
S'20:31:41'
p27
sS'date'
p28
S'02/23/14'
p29
sS'coin'
p30
S'ltc'
p31
sb.(itrades
trades
p0
(dp1
S'sell'
p2
cdecimal
Decimal
p3
(S'0.02528'
p4
tp5
Rp6
sS'updated'
p7
cdatetime
datetime
p8
(S'\x07\xde\x02\x17\x14)*\x00\x00\x00'
p9
tp10
Rp11
sS'buy'
p12
g3
(S'0.02533'
p13
tp14
Rp15
sS'server_time'
p16
g8
(S'\x07\xde\x02\x17\x14)+\x00\x00\x00'
p17
tp18
Rp19
sS'time_object'
p20
ctime
struct_time
p21
((I2014
I2
I23
I20
I41
I42
I6
I54
I0
tp22
(dp23
tp24
Rp25
sS'time'
p26
S'20:41:42'
p27
sS'date'
p28
S'02/23/14'
p29
sS'coin'
p30
S'ltc'
p31
sb.(itrades
trades
p0
(dp1
S'sell'
p2
cdecimal
Decimal
p3
(S'0.02534'
p4
tp5
Rp6
sS'updated'
p7
cdatetime
datetime
p8
(S'\x07\xde\x02\x17\x143/\x00\x00\x00'
p9
tp10
Rp11
sS'buy'
p12
g3
(S'0.02542'
p13
tp14
Rp15
sS'server_time'
p16
g8
(S'\x07\xde\x02\x17\x1430\x00\x00\x00'
p17
tp18
Rp19
sS'time_object'
p20
ctime
struct_time
p21
((I2014
I2
I23
I20
I51
I49
I6
I54
I0
tp22
(dp23
tp24
Rp25
sS'time'
p26
S'20:51:49'
p27
sS'date'
p28
S'02/23/14'
p29
sS'coin'
p30
S'ltc'
p31
sb.(itrades
trades
p0
(dp1
S'sell'
p2
cdecimal
Decimal
p3
(S'0.02522'
p4
tp5
Rp6
sS'updated'
p7
cdatetime
datetime
p8
(S'\x07\xde\x02\x17\x15\x011\x00\x00\x00'
p9
tp10
Rp11
sS'buy'
p12
g3
(S'0.02525'
p13
tp14
Rp15
sS'server_time'
p16
g8
(S'\x07\xde\x02\x17\x15\x013\x00\x00\x00'
p17
tp18
Rp19
sS'time_object'
p20
ctime
struct_time
p21
((I2014
I2
I23
I21
I1
I50
I6
I54
I0
tp22
(dp23
tp24
Rp25
sS'time'
p26
S'21:01:50'
p27
sS'date'
p28
S'02/23/14'
p29
sS'coin'
p30
S'ltc'
p31
sb.(itrades
trades
p0
(dp1
S'sell'
p2
cdecimal
Decimal
p3
(S'0.02526'
p4
tp5
Rp6
sS'updated'
p7
cdatetime
datetime
p8
(S'\x07\xde\x02\x17\x15\x0b2\x00\x00\x00'
p9
tp10
Rp11
sS'buy'
p12
g3
(S'0.02537'
p13
tp14
Rp15
sS'server_time'
p16
g8
(S'\x07\xde\x02\x17\x15\x0b4\x00\x00\x00'
p17
tp18
Rp19
sS'time_object'
p20
ctime
struct_time
p21
((I2014
I2
I23
I21
I11
I52
I6
I54
I0
tp22
(dp23
tp24
Rp25
sS'time'
p26
S'21:11:52'
p27
sS'date'
p28
S'02/23/14'
p29
sS'coin'
p30
S'ltc'
p31
sb.(itrades
trades
p0
(dp1
S'sell'
p2
cdecimal
Decimal
p3
(S'0.02525'
p4
tp5
Rp6
sS'updated'
p7
cdatetime
datetime
p8
(S'\x07\xde\x02\x17\x15\x155\x00\x00\x00'
p9
tp10
Rp11
sS'buy'
p12
g3
(S'0.02531'
p13
tp14
Rp15
sS'server_time'
p16
g8
(S'\x07\xde\x02\x17\x15\x156\x00\x00\x00'
p17
tp18
Rp19
sS'time_object'
p20
ctime
struct_time
p21
((I2014
I2
I23
I21
I21
I53
I6
I54
I0
tp22
(dp23
tp24
Rp25
sS'time'
p26
S'21:21:53'
p27
sS'date'
p28
S'02/23/14'
p29
sS'coin'
p30
S'ltc'
p31
sb.(itrades
trades
p0
(dp1
S'sell'
p2
cdecimal
Decimal
p3
(S'0.02532'
p4
tp5
Rp6
sS'updated'
p7
cdatetime
datetime
p8
(S'\x07\xde\x02\x17\x15\x1f7\x00\x00\x00'
p9
tp10
Rp11
sS'buy'
p12
g3
(S'0.02535'
p13
tp14
Rp15
sS'server_time'
p16
g8
(S'\x07\xde\x02\x17\x15\x1f8\x00\x00\x00'
p17
tp18
Rp19
sS'time_object'
p20
ctime
struct_time
p21
((I2014
I2
I23
I21
I31
I55
I6
I54
I0
tp22
(dp23
tp24
Rp25
sS'time'
p26
S'21:31:55'
p27
sS'date'
p28
S'02/23/14'
p29
sS'coin'
p30
S'ltc'
p31
sb.(itrades
trades
p0
(dp1
S'sell'
p2
cdecimal
Decimal
p3
(S'0.02527'
p4
tp5
Rp6
sS'updated'
p7
cdatetime
datetime
p8
(S'\x07\xde\x02\x17\x15)8\x00\x00\x00'
p9
tp10
Rp11
sS'buy'
p12
g3
(S'0.02528'
p13
tp14
Rp15
sS'server_time'
p16
g8
(S'\x07\xde\x02\x17\x15)8\x00\x00\x00'
p17
tp18
Rp19
sS'time_object'
p20
ctime
struct_time
p21
((I2014
I2
I23
I21
I41
I56
I6
I54
I0
tp22
(dp23
tp24
Rp25
sS'time'
p26
S'21:41:56'
p27
sS'date'
p28
S'02/23/14'
p29
sS'coin'
p30
S'ltc'
p31
sb.(itrades
trades
p0
(dp1
S'sell'
p2
cdecimal
Decimal
p3
(S'0.02541'
p4
tp5
Rp6
sS'updated'
p7
cdatetime
datetime
p8
(S'\x07\xde\x02\x17\x1539\x00\x00\x00'
p9
tp10
Rp11
sS'buy'
p12
g3
(S'0.02543'
p13
tp14
Rp15
sS'server_time'
p16
g8
(S'\x07\xde\x02\x17\x153:\x00\x00\x00'
p17
tp18
Rp19
sS'time_object'
p20
ctime
struct_time
p21
((I2014
I2
I23
I21
I51
I57
I6
I54
I0
tp22
(dp23
tp24
Rp25
sS'time'
p26
S'21:51:57'
p27
sS'date'
p28
S'02/23/14'
p29
sS'coin'
p30
S'ltc'
p31
sb.(itrades
trades
p0
(dp1
S'sell'
p2
cdecimal
Decimal
p3
(S'0.02539'
p4
tp5
Rp6
sS'updated'
p7
cdatetime
datetime
p8
(S'\x07\xde\x02\x17\x16\x019\x00\x00\x00'
p9
tp10
Rp11
sS'buy'
p12
g3
(S'0.02542'
p13
tp14
Rp15
sS'server_time'
p16
g8
(S'\x07\xde\x02\x17\x16\x01:\x00\x00\x00'
p17
tp18
Rp19
sS'time_object'
p20
ctime
struct_time
p21
((I2014
I2
I23
I22
I1
I58
I6
I54
I0
tp22
(dp23
tp24
Rp25
sS'time'
p26
S'22:01:58'
p27
sS'date'
p28
S'02/23/14'
p29
sS'coin'
p30
S'ltc'
p31
sb.(itrades
trades
p0
(dp1
S'sell'
p2
cdecimal
Decimal
p3
(S'0.02537'
p4
tp5
Rp6
sS'updated'
p7
cdatetime
datetime
p8
(S'\x07\xde\x02\x17\x16\x0b:\x00\x00\x00'
p9
tp10
Rp11
sS'buy'
p12
g3
(S'0.02548'
p13
tp14
Rp15
sS'server_time'
p16
g8
(S'\x07\xde\x02\x17\x16\x0b;\x00\x00\x00'
p17
tp18
Rp19
sS'time_object'
p20
ctime
struct_time
p21
((I2014
I2
I23
I22
I11
I59
I6
I54
I0
tp22
(dp23
tp24
Rp25
sS'time'
p26
S'22:11:59'
p27
sS'date'
p28
S'02/23/14'
p29
sS'coin'
p30
S'ltc'
p31
sb.(itrades
trades
p0
(dp1
S'sell'
p2
cdecimal
Decimal
p3
(S'0.02542'
p4
tp5
Rp6
sS'updated'
p7
cdatetime
datetime
p8
(S'\x07\xde\x02\x17\x16\x16\x00\x00\x00\x00'
p9
tp10
Rp11
sS'buy'
p12
g3
(S'0.02546'
p13
tp14
Rp15
sS'server_time'
p16
g8
(S'\x07\xde\x02\x17\x16\x16\x01\x00\x00\x00'
p17
tp18
Rp19
sS'time_object'
p20
ctime
struct_time
p21
((I2014
I2
I23
I22
I22
I1
I6
I54
I0
tp22
(dp23
tp24
Rp25
sS'time'
p26
S'22:22:01'
p27
sS'date'
p28
S'02/23/14'
p29
sS'coin'
p30
S'ltc'
p31
sb.(itrades
trades
p0
(dp1
S'sell'
p2
cdecimal
Decimal
p3
(S'0.02537'
p4
tp5
Rp6
sS'updated'
p7
cdatetime
datetime
p8
(S'\x07\xde\x02\x17\x16 \x01\x00\x00\x00'
p9
tp10
Rp11
sS'buy'
p12
g3
(S'0.0254'
p13
tp14
Rp15
sS'server_time'
p16
g8
(S'\x07\xde\x02\x17\x16 \x03\x00\x00\x00'
p17
tp18
Rp19
sS'time_object'
p20
ctime
struct_time
p21
((I2014
I2
I23
I22
I32
I3
I6
I54
I0
tp22
(dp23
tp24
Rp25
sS'time'
p26
S'22:32:03'
p27
sS'date'
p28
S'02/23/14'
p29
sS'coin'
p30
S'ltc'
p31
sb.(itrades
trades
p0
(dp1
S'sell'
p2
cdecimal
Decimal
p3
(S'0.02544'
p4
tp5
Rp6
sS'updated'
p7
cdatetime
datetime
p8
(S'\x07\xde\x02\x17\x16*\x04\x00\x00\x00'
p9
tp10
Rp11
sS'buy'
p12
g3
(S'0.02545'
p13
tp14
Rp15
sS'server_time'
p16
g8
(S'\x07\xde\x02\x17\x16*\x05\x00\x00\x00'
p17
tp18
Rp19
sS'time_object'
p20
ctime
struct_time
p21
((I2014
I2
I23
I22
I42
I5
I6
I54
I0
tp22
(dp23
tp24
Rp25
sS'time'
p26
S'22:42:05'
p27
sS'date'
p28
S'02/23/14'
p29
sS'coin'
p30
S'ltc'
p31
sb.(itrades
trades
p0
(dp1
S'sell'
p2
cdecimal
Decimal
p3
(S'0.02539'
p4
tp5
Rp6
sS'updated'
p7
cdatetime
datetime
p8
(S'\x07\xde\x02\x17\x164\x04\x00\x00\x00'
p9
tp10
Rp11
sS'buy'
p12
g3
(S'0.02543'
p13
tp14
Rp15
sS'server_time'
p16
g8
(S'\x07\xde\x02\x17\x164\x06\x00\x00\x00'
p17
tp18
Rp19
sS'time_object'
p20
ctime
struct_time
p21
((I2014
I2
I23
I22
I52
I5
I6
I54
I0
tp22
(dp23
tp24
Rp25
sS'time'
p26
S'22:52:05'
p27
sS'date'
p28
S'02/23/14'
p29
sS'coin'
p30
S'ltc'
p31
sb.(itrades
trades
p0
(dp1
S'sell'
p2
cdecimal
Decimal
p3
(S'0.02541'
p4
tp5
Rp6
sS'updated'
p7
cdatetime
datetime
p8
(S'\x07\xde\x02\x17\x17\x02\x05\x00\x00\x00'
p9
tp10
Rp11
sS'buy'
p12
g3
(S'0.02549'
p13
tp14
Rp15
sS'server_time'
p16
g8
(S'\x07\xde\x02\x17\x17\x02\x07\x00\x00\x00'
p17
tp18
Rp19
sS'time_object'
p20
ctime
struct_time
p21
((I2014
I2
I23
I23
I2
I6
I6
I54
I0
tp22
(dp23
tp24
Rp25
sS'time'
p26
S'23:02:06'
p27
sS'date'
p28
S'02/23/14'
p29
sS'coin'
p30
S'ltc'
p31
sb.(itrades
trades
p0
(dp1
S'sell'
p2
cdecimal
Decimal
p3
(S'0.02546'
p4
tp5
Rp6
sS'updated'
p7
cdatetime
datetime
p8
(S'\x07\xde\x02\x17\x17\x0c\x08\x00\x00\x00'
p9
tp10
Rp11
sS'buy'
p12
g3
(S'0.02548'
p13
tp14
Rp15
sS'server_time'
p16
g8
(S'\x07\xde\x02\x17\x17\x0c\t\x00\x00\x00'
p17
tp18
Rp19
sS'time_object'
p20
ctime
struct_time
p21
((I2014
I2
I23
I23
I12
I8
I6
I54
I0
tp22
(dp23
tp24
Rp25
sS'time'
p26
S'23:12:08'
p27
sS'date'
p28
S'02/23/14'
p29
sS'coin'
p30
S'ltc'
p31
sb.(itrades
trades
p0
(dp1
S'sell'
p2
cdecimal
Decimal
p3
(S'0.02538'
p4
tp5
Rp6
sS'updated'
p7
cdatetime
datetime
p8
(S'\x07\xde\x02\x17\x17\x16\x08\x00\x00\x00'
p9
tp10
Rp11
sS'buy'
p12
g3
(S'0.0255'
p13
tp14
Rp15
sS'server_time'
p16
g8
(S'\x07\xde\x02\x17\x17\x16\t\x00\x00\x00'
p17
tp18
Rp19
sS'time_object'
p20
ctime
struct_time
p21
((I2014
I2
I23
I23
I22
I9
I6
I54
I0
tp22
(dp23
tp24
Rp25
sS'time'
p26
S'23:22:09'
p27
sS'date'
p28
S'02/23/14'
p29
sS'coin'
p30
S'ltc'
p31
sb.(itrades
trades
p0
(dp1
S'sell'
p2
cdecimal
Decimal
p3
(S'0.02545'
p4
tp5
Rp6
sS'updated'
p7
cdatetime
datetime
p8
(S'\x07\xde\x02\x17\x17 \t\x00\x00\x00'
p9
tp10
Rp11
sS'buy'
p12
g3
(S'0.02549'
p13
tp14
Rp15
sS'server_time'
p16
g8
(S'\x07\xde\x02\x17\x17 \x0b\x00\x00\x00'
p17
tp18
Rp19
sS'time_object'
p20
ctime
struct_time
p21
((I2014
I2
I23
I23
I32
I12
I6
I54
I0
tp22
(dp23
tp24
Rp25
sS'time'
p26
S'23:32:12'
p27
sS'date'
p28
S'02/23/14'
p29
sS'coin'
p30
S'ltc'
p31
sb.(itrades
trades
p0
(dp1
S'sell'
p2
cdecimal
Decimal
p3
(S'0.02538'
p4
tp5
Rp6
sS'updated'
p7
cdatetime
datetime
p8
(S'\x07\xde\x02\x17\x17*\x0c\x00\x00\x00'
p9
tp10
Rp11
sS'buy'
p12
g3
(S'0.02553'
p13
tp14
Rp15
sS'server_time'
p16
g8
(S'\x07\xde\x02\x17\x17*\r\x00\x00\x00'
p17
tp18
Rp19
sS'time_object'
p20
ctime
struct_time
p21
((I2014
I2
I23
I23
I42
I13
I6
I54
I0
tp22
(dp23
tp24
Rp25
sS'time'
p26
S'23:42:13'
p27
sS'date'
p28
S'02/23/14'
p29
sS'coin'
p30
S'ltc'
p31
sb.(itrades
trades
p0
(dp1
S'sell'
p2
cdecimal
Decimal
p3
(S'0.02541'
p4
tp5
Rp6
sS'updated'
p7
cdatetime
datetime
p8
(S'\x07\xde\x02\x17\x174\x0e\x00\x00\x00'
p9
tp10
Rp11
sS'buy'
p12
g3
(S'0.0255'
p13
tp14
Rp15
sS'server_time'
p16
g8
(S'\x07\xde\x02\x17\x174\x0f\x00\x00\x00'
p17
tp18
Rp19
sS'time_object'
p20
ctime
struct_time
p21
((I2014
I2
I23
I23
I52
I14
I6
I54
I0
tp22
(dp23
tp24
Rp25
sS'time'
p26
S'23:52:14'
p27
sS'date'
p28
S'02/23/14'
p29
sS'coin'
p30
S'ltc'
p31
sb.(itrades
trades
p0
(dp1
S'sell'
p2
cdecimal
Decimal
p3
(S'0.02538'
p4
tp5
Rp6
sS'updated'
p7
cdatetime
datetime
p8
(S'\x07\xde\x02\x18\x00\x02\x0f\x00\x00\x00'
p9
tp10
Rp11
sS'buy'
p12
g3
(S'0.02548'
p13
tp14
Rp15
sS'server_time'
p16
g8
(S'\x07\xde\x02\x18\x00\x02\x10\x00\x00\x00'
p17
tp18
Rp19
sS'time_object'
p20
ctime
struct_time
p21
((I2014
I2
I24
I0
I2
I15
I0
I55
I0
tp22
(dp23
tp24
Rp25
sS'time'
p26
S'00:02:15'
p27
sS'date'
p28
S'02/24/14'
p29
sS'coin'
p30
S'ltc'
p31
sb.(itrades
trades
p0
(dp1
S'sell'
p2
cdecimal
Decimal
p3
(S'0.02541'
p4
tp5
Rp6
sS'updated'
p7
cdatetime
datetime
p8
(S'\x07\xde\x02\x18\x00\x0c\x10\x00\x00\x00'
p9
tp10
Rp11
sS'buy'
p12
g3
(S'0.0255'
p13
tp14
Rp15
sS'server_time'
p16
g8
(S'\x07\xde\x02\x18\x00\x0c\x10\x00\x00\x00'
p17
tp18
Rp19
sS'time_object'
p20
ctime
struct_time
p21
((I2014
I2
I24
I0
I12
I16
I0
I55
I0
tp22
(dp23
tp24
Rp25
sS'time'
p26
S'00:12:16'
p27
sS'date'
p28
S'02/24/14'
p29
sS'coin'
p30
S'ltc'
p31
sb.(itrades
trades
p0
(dp1
S'sell'
p2
cdecimal
Decimal
p3
(S'0.02537'
p4
tp5
Rp6
sS'updated'
p7
cdatetime
datetime
p8
(S'\x07\xde\x02\x18\x00\x16\x12\x00\x00\x00'
p9
tp10
Rp11
sS'buy'
p12
g3
(S'0.02549'
p13
tp14
Rp15
sS'server_time'
p16
g8
(S'\x07\xde\x02\x18\x00\x16\x13\x00\x00\x00'
p17
tp18
Rp19
sS'time_object'
p20
ctime
struct_time
p21
((I2014
I2
I24
I0
I22
I18
I0
I55
I0
tp22
(dp23
tp24
Rp25
sS'time'
p26
S'00:22:18'
p27
sS'date'
p28
S'02/24/14'
p29
sS'coin'
p30
S'ltc'
p31
sb.(itrades
trades
p0
(dp1
S'sell'
p2
cdecimal
Decimal
p3
(S'0.0254'
p4
tp5
Rp6
sS'updated'
p7
cdatetime
datetime
p8
(S'\x07\xde\x02\x18\x00 \x13\x00\x00\x00'
p9
tp10
Rp11
sS'buy'
p12
g3
(S'0.0255'
p13
tp14
Rp15
sS'server_time'
p16
g8
(S'\x07\xde\x02\x18\x00 \x14\x00\x00\x00'
p17
tp18
Rp19
sS'time_object'
p20
ctime
struct_time
p21
((I2014
I2
I24
I0
I32
I19
I0
I55
I0
tp22
(dp23
tp24
Rp25
sS'time'
p26
S'00:32:19'
p27
sS'date'
p28
S'02/24/14'
p29
sS'coin'
p30
S'ltc'
p31
sb.(itrades
trades
p0
(dp1
S'sell'
p2
cdecimal
Decimal
p3
(S'0.02558'
p4
tp5
Rp6
sS'updated'
p7
cdatetime
datetime
p8
(S'\x07\xde\x02\x18\x00*\x14\x00\x00\x00'
p9
tp10
Rp11
sS'buy'
p12
g3
(S'0.02559'
p13
tp14
Rp15
sS'server_time'
p16
g8
(S'\x07\xde\x02\x18\x00*\x15\x00\x00\x00'
p17
tp18
Rp19
sS'time_object'
p20
ctime
struct_time
p21
((I2014
I2
I24
I0
I42
I21
I0
I55
I0
tp22
(dp23
tp24
Rp25
sS'time'
p26
S'00:42:21'
p27
sS'date'
p28
S'02/24/14'
p29
sS'coin'
p30
S'ltc'
p31
sb.(itrades
trades
p0
(dp1
S'sell'
p2
cdecimal
Decimal
p3
(S'0.0256'
p4
tp5
Rp6
sS'updated'
p7
cdatetime
datetime
p8
(S'\x07\xde\x02\x18\x004\x16\x00\x00\x00'
p9
tp10
Rp11
sS'buy'
p12
g3
(S'0.02563'
p13
tp14
Rp15
sS'server_time'
p16
g8
(S'\x07\xde\x02\x18\x004\x18\x00\x00\x00'
p17
tp18
Rp19
sS'time_object'
p20
ctime
struct_time
p21
((I2014
I2
I24
I0
I52
I23
I0
I55
I0
tp22
(dp23
tp24
Rp25
sS'time'
p26
S'00:52:23'
p27
sS'date'
p28
S'02/24/14'
p29
sS'coin'
p30
S'ltc'
p31
sb.(itrades
trades
p0
(dp1
S'sell'
p2
cdecimal
Decimal
p3
(S'0.02553'
p4
tp5
Rp6
sS'updated'
p7
cdatetime
datetime
p8
(S'\x07\xde\x02\x18\x01\x02\x17\x00\x00\x00'
p9
tp10
Rp11
sS'buy'
p12
g3
(S'0.0256'
p13
tp14
Rp15
sS'server_time'
p16
g8
(S'\x07\xde\x02\x18\x01\x02\x18\x00\x00\x00'
p17
tp18
Rp19
sS'time_object'
p20
ctime
struct_time
p21
((I2014
I2
I24
I1
I2
I24
I0
I55
I0
tp22
(dp23
tp24
Rp25
sS'time'
p26
S'01:02:24'
p27
sS'date'
p28
S'02/24/14'
p29
sS'coin'
p30
S'ltc'
p31
sb.(itrades
trades
p0
(dp1
S'sell'
p2
cdecimal
Decimal
p3
(S'0.02546'
p4
tp5
Rp6
sS'updated'
p7
cdatetime
datetime
p8
(S'\x07\xde\x02\x18\x01\x0c\x18\x00\x00\x00'
p9
tp10
Rp11
sS'buy'
p12
g3
(S'0.02559'
p13
tp14
Rp15
sS'server_time'
p16
g8
(S'\x07\xde\x02\x18\x01\x0c\x19\x00\x00\x00'
p17
tp18
Rp19
sS'time_object'
p20
ctime
struct_time
p21
((I2014
I2
I24
I1
I12
I24
I0
I55
I0
tp22
(dp23
tp24
Rp25
sS'time'
p26
S'01:12:24'
p27
sS'date'
p28
S'02/24/14'
p29
sS'coin'
p30
S'ltc'
p31
sb.(itrades
trades
p0
(dp1
S'sell'
p2
cdecimal
Decimal
p3
(S'0.02552'
p4
tp5
Rp6
sS'updated'
p7
cdatetime
datetime
p8
(S'\x07\xde\x02\x18\x01\x16\x18\x00\x00\x00'
p9
tp10
Rp11
sS'buy'
p12
g3
(S'0.02562'
p13
tp14
Rp15
sS'server_time'
p16
g8
(S'\x07\xde\x02\x18\x01\x16\x19\x00\x00\x00'
p17
tp18
Rp19
sS'time_object'
p20
ctime
struct_time
p21
((I2014
I2
I24
I1
I22
I25
I0
I55
I0
tp22
(dp23
tp24
Rp25
sS'time'
p26
S'01:22:25'
p27
sS'date'
p28
S'02/24/14'
p29
sS'coin'
p30
S'ltc'
p31
sb.(itrades
trades
p0
(dp1
S'sell'
p2
cdecimal
Decimal
p3
(S'0.02546'
p4
tp5
Rp6
sS'updated'
p7
cdatetime
datetime
p8
(S'\x07\xde\x02\x18\x01 \x19\x00\x00\x00'
p9
tp10
Rp11
sS'buy'
p12
g3
(S'0.0255'
p13
tp14
Rp15
sS'server_time'
p16
g8
(S'\x07\xde\x02\x18\x01 \x1b\x00\x00\x00'
p17
tp18
Rp19
sS'time_object'
p20
ctime
struct_time
p21
((I2014
I2
I24
I1
I32
I26
I0
I55
I0
tp22
(dp23
tp24
Rp25
sS'time'
p26
S'01:32:26'
p27
sS'date'
p28
S'02/24/14'
p29
sS'coin'
p30
S'ltc'
p31
sb.(itrades
trades
p0
(dp1
S'sell'
p2
cdecimal
Decimal
p3
(S'0.02547'
p4
tp5
Rp6
sS'updated'
p7
cdatetime
datetime
p8
(S'\x07\xde\x02\x18\x01*\x1a\x00\x00\x00'
p9
tp10
Rp11
sS'buy'
p12
g3
(S'0.02556'
p13
tp14
Rp15
sS'server_time'
p16
g8
(S'\x07\xde\x02\x18\x01*\x1b\x00\x00\x00'
p17
tp18
Rp19
sS'time_object'
p20
ctime
struct_time
p21
((I2014
I2
I24
I1
I42
I27
I0
I55
I0
tp22
(dp23
tp24
Rp25
sS'time'
p26
S'01:42:27'
p27
sS'date'
p28
S'02/24/14'
p29
sS'coin'
p30
S'ltc'
p31
sb.(itrades
trades
p0
(dp1
S'sell'
p2
cdecimal
Decimal
p3
(S'0.02546'
p4
tp5
Rp6
sS'updated'
p7
cdatetime
datetime
p8
(S'\x07\xde\x02\x18\x014\x1a\x00\x00\x00'
p9
tp10
Rp11
sS'buy'
p12
g3
(S'0.02556'
p13
tp14
Rp15
sS'server_time'
p16
g8
(S'\x07\xde\x02\x18\x014\x1c\x00\x00\x00'
p17
tp18
Rp19
sS'time_object'
p20
ctime
struct_time
p21
((I2014
I2
I24
I1
I52
I27
I0
I55
I0
tp22
(dp23
tp24
Rp25
sS'time'
p26
S'01:52:27'
p27
sS'date'
p28
S'02/24/14'
p29
sS'coin'
p30
S'ltc'
p31
sb.(itrades
trades
p0
(dp1
S'sell'
p2
cdecimal
Decimal
p3
(S'0.02546'
p4
tp5
Rp6
sS'updated'
p7
cdatetime
datetime
p8
(S'\x07\xde\x02\x18\x02\x02\x1b\x00\x00\x00'
p9
tp10
Rp11
sS'buy'
p12
g3
(S'0.02558'
p13
tp14
Rp15
sS'server_time'
p16
g8
(S'\x07\xde\x02\x18\x02\x02\x1c\x00\x00\x00'
p17
tp18
Rp19
sS'time_object'
p20
ctime
struct_time
p21
((I2014
I2
I24
I2
I2
I28
I0
I55
I0
tp22
(dp23
tp24
Rp25
sS'time'
p26
S'02:02:28'
p27
sS'date'
p28
S'02/24/14'
p29
sS'coin'
p30
S'ltc'
p31
sb.(itrades
trades
p0
(dp1
S'sell'
p2
cdecimal
Decimal
p3
(S'0.0255'
p4
tp5
Rp6
sS'updated'
p7
cdatetime
datetime
p8
(S'\x07\xde\x02\x18\x02\x0c\x1c\x00\x00\x00'
p9
tp10
Rp11
sS'buy'
p12
g3
(S'0.02557'
p13
tp14
Rp15
sS'server_time'
p16
g8
(S'\x07\xde\x02\x18\x02\x0c\x1e\x00\x00\x00'
p17
tp18
Rp19
sS'time_object'
p20
ctime
struct_time
p21
((I2014
I2
I24
I2
I12
I29
I0
I55
I0
tp22
(dp23
tp24
Rp25
sS'time'
p26
S'02:12:29'
p27
sS'date'
p28
S'02/24/14'
p29
sS'coin'
p30
S'ltc'
p31
sb.(itrades
trades
p0
(dp1
S'sell'
p2
cdecimal
Decimal
p3
(S'0.0255'
p4
tp5
Rp6
sS'updated'
p7
cdatetime
datetime
p8
(S'\x07\xde\x02\x18\x02\x16\x1c\x00\x00\x00'
p9
tp10
Rp11
sS'buy'
p12
g3
(S'0.02555'
p13
tp14
Rp15
sS'server_time'
p16
g8
(S'\x07\xde\x02\x18\x02\x16\x1e\x00\x00\x00'
p17
tp18
Rp19
sS'time_object'
p20
ctime
struct_time
p21
((I2014
I2
I24
I2
I22
I30
I0
I55
I0
tp22
(dp23
tp24
Rp25
sS'time'
p26
S'02:22:30'
p27
sS'date'
p28
S'02/24/14'
p29
sS'coin'
p30
S'ltc'
p31
sb.(itrades
trades
p0
(dp1
S'sell'
p2
cdecimal
Decimal
p3
(S'0.02552'
p4
tp5
Rp6
sS'updated'
p7
cdatetime
datetime
p8
(S'\x07\xde\x02\x18\x02 \x1d\x00\x00\x00'
p9
tp10
Rp11
sS'buy'
p12
g3
(S'0.02557'
p13
tp14
Rp15
sS'server_time'
p16
g8
(S'\x07\xde\x02\x18\x02 \x1f\x00\x00\x00'
p17
tp18
Rp19
sS'time_object'
p20
ctime
struct_time
p21
((I2014
I2
I24
I2
I32
I30
I0
I55
I0
tp22
(dp23
tp24
Rp25
sS'time'
p26
S'02:32:30'
p27
sS'date'
p28
S'02/24/14'
p29
sS'coin'
p30
S'ltc'
p31
sb.(itrades
trades
p0
(dp1
S'sell'
p2
cdecimal
Decimal
p3
(S'0.0256'
p4
tp5
Rp6
sS'updated'
p7
cdatetime
datetime
p8
(S'\x07\xde\x02\x18\x02*\x1e\x00\x00\x00'
p9
tp10
Rp11
sS'buy'
p12
g3
(S'0.02565'
p13
tp14
Rp15
sS'server_time'
p16
g8
(S'\x07\xde\x02\x18\x02* \x00\x00\x00'
p17
tp18
Rp19
sS'time_object'
p20
ctime
struct_time
p21
((I2014
I2
I24
I2
I42
I31
I0
I55
I0
tp22
(dp23
tp24
Rp25
sS'time'
p26
S'02:42:31'
p27
sS'date'
p28
S'02/24/14'
p29
sS'coin'
p30
S'ltc'
p31
sb.(itrades
trades
p0
(dp1
S'sell'
p2
cdecimal
Decimal
p3
(S'0.0256'
p4
tp5
Rp6
sS'updated'
p7
cdatetime
datetime
p8
(S'\x07\xde\x02\x18\x024\x1f\x00\x00\x00'
p9
tp10
Rp11
sS'buy'
p12
g3
(S'0.02565'
p13
tp14
Rp15
sS'server_time'
p16
g8
(S'\x07\xde\x02\x18\x024!\x00\x00\x00'
p17
tp18
Rp19
sS'time_object'
p20
ctime
struct_time
p21
((I2014
I2
I24
I2
I52
I32
I0
I55
I0
tp22
(dp23
tp24
Rp25
sS'time'
p26
S'02:52:32'
p27
sS'date'
p28
S'02/24/14'
p29
sS'coin'
p30
S'ltc'
p31
sb.(itrades
trades
p0
(dp1
S'sell'
p2
cdecimal
Decimal
p3
(S'0.02562'
p4
tp5
Rp6
sS'updated'
p7
cdatetime
datetime
p8
(S'\x07\xde\x02\x18\x03\x02\x1f\x00\x00\x00'
p9
tp10
Rp11
sS'buy'
p12
g3
(S'0.02563'
p13
tp14
Rp15
sS'server_time'
p16
g8
(S'\x07\xde\x02\x18\x03\x02"\x00\x00\x00'
p17
tp18
Rp19
sS'time_object'
p20
ctime
struct_time
p21
((I2014
I2
I24
I3
I2
I33
I0
I55
I0
tp22
(dp23
tp24
Rp25
sS'time'
p26
S'03:02:33'
p27
sS'date'
p28
S'02/24/14'
p29
sS'coin'
p30
S'ltc'
p31
sb.(itrades
trades
p0
(dp1
S'sell'
p2
cdecimal
Decimal
p3
(S'0.02561'
p4
tp5
Rp6
sS'updated'
p7
cdatetime
datetime
p8
(S'\x07\xde\x02\x18\x03\x0c"\x00\x00\x00'
p9
tp10
Rp11
sS'buy'
p12
g3
(S'0.02562'
p13
tp14
Rp15
sS'server_time'
p16
g8
(S'\x07\xde\x02\x18\x03\x0c"\x00\x00\x00'
p17
tp18
Rp19
sS'time_object'
p20
ctime
struct_time
p21
((I2014
I2
I24
I3
I12
I34
I0
I55
I0
tp22
(dp23
tp24
Rp25
sS'time'
p26
S'03:12:34'
p27
sS'date'
p28
S'02/24/14'
p29
sS'coin'
p30
S'ltc'
p31
sb.(itrades
trades
p0
(dp1
S'sell'
p2
cdecimal
Decimal
p3
(S'0.02551'
p4
tp5
Rp6
sS'updated'
p7
cdatetime
datetime
p8
(S'\x07\xde\x02\x18\x03\x16#\x00\x00\x00'
p9
tp10
Rp11
sS'buy'
p12
g3
(S'0.02553'
p13
tp14
Rp15
sS'server_time'
p16
g8
(S'\x07\xde\x02\x18\x03\x16%\x00\x00\x00'
p17
tp18
Rp19
sS'time_object'
p20
ctime
struct_time
p21
((I2014
I2
I24
I3
I22
I39
I0
I55
I0
tp22
(dp23
tp24
Rp25
sS'time'
p26
S'03:22:39'
p27
sS'date'
p28
S'02/24/14'
p29
sS'coin'
p30
S'ltc'
p31
sb.(itrades
trades
p0
(dp1
S'sell'
p2
cdecimal
Decimal
p3
(S'0.02555'
p4
tp5
Rp6
sS'updated'
p7
cdatetime
datetime
p8
(S"\x07\xde\x02\x18\x03 '\x00\x00\x00"
p9
tp10
Rp11
sS'buy'
p12
g3
(S'0.02558'
p13
tp14
Rp15
sS'server_time'
p16
g8
(S'\x07\xde\x02\x18\x03 (\x00\x00\x00'
p17
tp18
Rp19
sS'time_object'
p20
ctime
struct_time
p21
((I2014
I2
I24
I3
I32
I40
I0
I55
I0
tp22
(dp23
tp24
Rp25
sS'time'
p26
S'03:32:40'
p27
sS'date'
p28
S'02/24/14'
p29
sS'coin'
p30
S'ltc'
p31
sb.(itrades
trades
p0
(dp1
S'sell'
p2
cdecimal
Decimal
p3
(S'0.0256'
p4
tp5
Rp6
sS'updated'
p7
cdatetime
datetime
p8
(S'\x07\xde\x02\x18\x03*(\x00\x00\x00'
p9
tp10
Rp11
sS'buy'
p12
g3
(S'0.02562'
p13
tp14
Rp15
sS'server_time'
p16
g8
(S'\x07\xde\x02\x18\x03*)\x00\x00\x00'
p17
tp18
Rp19
sS'time_object'
p20
ctime
struct_time
p21
((I2014
I2
I24
I3
I42
I40
I0
I55
I0
tp22
(dp23
tp24
Rp25
sS'time'
p26
S'03:42:40'
p27
sS'date'
p28
S'02/24/14'
p29
sS'coin'
p30
S'ltc'
p31
sb.(itrades
trades
p0
(dp1
S'sell'
p2
cdecimal
Decimal
p3
(S'0.02559'
p4
tp5
Rp6
sS'updated'
p7
cdatetime
datetime
p8
(S'\x07\xde\x02\x18\x034)\x00\x00\x00'
p9
tp10
Rp11
sS'buy'
p12
g3
(S'0.0256'
p13
tp14
Rp15
sS'server_time'
p16
g8
(S'\x07\xde\x02\x18\x034*\x00\x00\x00'
p17
tp18
Rp19
sS'time_object'
p20
ctime
struct_time
p21
((I2014
I2
I24
I3
I52
I41
I0
I55
I0
tp22
(dp23
tp24
Rp25
sS'time'
p26
S'03:52:41'
p27
sS'date'
p28
S'02/24/14'
p29
sS'coin'
p30
S'ltc'
p31
sb.(itrades
trades
p0
(dp1
S'sell'
p2
cdecimal
Decimal
p3
(S'0.0256'
p4
tp5
Rp6
sS'updated'
p7
cdatetime
datetime
p8
(S'\x07\xde\x02\x18\x04\x02)\x00\x00\x00'
p9
tp10
Rp11
sS'buy'
p12
g3
(S'0.02561'
p13
tp14
Rp15
sS'server_time'
p16
g8
(S'\x07\xde\x02\x18\x04\x02+\x00\x00\x00'
p17
tp18
Rp19
sS'time_object'
p20
ctime
struct_time
p21
((I2014
I2
I24
I4
I2
I42
I0
I55
I0
tp22
(dp23
tp24
Rp25
sS'time'
p26
S'04:02:42'
p27
sS'date'
p28
S'02/24/14'
p29
sS'coin'
p30
S'ltc'
p31
sb.(itrades
trades
p0
(dp1
S'sell'
p2
cdecimal
Decimal
p3
(S'0.02569'
p4
tp5
Rp6
sS'updated'
p7
cdatetime
datetime
p8
(S'\x07\xde\x02\x18\x04\x0c*\x00\x00\x00'
p9
tp10
Rp11
sS'buy'
p12
g3
(S'0.0257'
p13
tp14
Rp15
sS'server_time'
p16
g8
(S'\x07\xde\x02\x18\x04\x0c,\x00\x00\x00'
p17
tp18
Rp19
sS'time_object'
p20
ctime
struct_time
p21
((I2014
I2
I24
I4
I12
I43
I0
I55
I0
tp22
(dp23
tp24
Rp25
sS'time'
p26
S'04:12:43'
p27
sS'date'
p28
S'02/24/14'
p29
sS'coin'
p30
S'ltc'
p31
sb.(itrades
trades
p0
(dp1
S'sell'
p2
cdecimal
Decimal
p3
(S'0.02558'
p4
tp5
Rp6
sS'updated'
p7
cdatetime
datetime
p8
(S'\x07\xde\x02\x18\x04\x16+\x00\x00\x00'
p9
tp10
Rp11
sS'buy'
p12
g3
(S'0.02559'
p13
tp14
Rp15
sS'server_time'
p16
g8
(S'\x07\xde\x02\x18\x04\x16,\x00\x00\x00'
p17
tp18
Rp19
sS'time_object'
p20
ctime
struct_time
p21
((I2014
I2
I24
I4
I22
I44
I0
I55
I0
tp22
(dp23
tp24
Rp25
sS'time'
p26
S'04:22:44'
p27
sS'date'
p28
S'02/24/14'
p29
sS'coin'
p30
S'ltc'
p31
sb.(itrades
trades
p0
(dp1
S'sell'
p2
cdecimal
Decimal
p3
(S'0.02557'
p4
tp5
Rp6
sS'updated'
p7
cdatetime
datetime
p8
(S'\x07\xde\x02\x18\x04 -\x00\x00\x00'
p9
tp10
Rp11
sS'buy'
p12
g3
(S'0.02564'
p13
tp14
Rp15
sS'server_time'
p16
g8
(S'\x07\xde\x02\x18\x04 .\x00\x00\x00'
p17
tp18
Rp19
sS'time_object'
p20
ctime
struct_time
p21
((I2014
I2
I24
I4
I32
I46
I0
I55
I0
tp22
(dp23
tp24
Rp25
sS'time'
p26
S'04:32:46'
p27
sS'date'
p28
S'02/24/14'
p29
sS'coin'
p30
S'ltc'
p31
sb.(itrades
trades
p0
(dp1
S'sell'
p2
cdecimal
Decimal
p3
(S'0.02559'
p4
tp5
Rp6
sS'updated'
p7
cdatetime
datetime
p8
(S'\x07\xde\x02\x18\x04*.\x00\x00\x00'
p9
tp10
Rp11
sS'buy'
p12
g3
(S'0.02565'
p13
tp14
Rp15
sS'server_time'
p16
g8
(S'\x07\xde\x02\x18\x04*/\x00\x00\x00'
p17
tp18
Rp19
sS'time_object'
p20
ctime
struct_time
p21
((I2014
I2
I24
I4
I42
I46
I0
I55
I0
tp22
(dp23
tp24
Rp25
sS'time'
p26
S'04:42:46'
p27
sS'date'
p28
S'02/24/14'
p29
sS'coin'
p30
S'ltc'
p31
sb.(itrades
trades
p0
(dp1
S'sell'
p2
cdecimal
Decimal
p3
(S'0.02553'
p4
tp5
Rp6
sS'updated'
p7
cdatetime
datetime
p8
(S'\x07\xde\x02\x18\x044/\x00\x00\x00'
p9
tp10
Rp11
sS'buy'
p12
g3
(S'0.02558'
p13
tp14
Rp15
sS'server_time'
p16
g8
(S'\x07\xde\x02\x18\x0441\x00\x00\x00'
p17
tp18
Rp19
sS'time_object'
p20
ctime
struct_time
p21
((I2014
I2
I24
I4
I52
I49
I0
I55
I0
tp22
(dp23
tp24
Rp25
sS'time'
p26
S'04:52:49'
p27
sS'date'
p28
S'02/24/14'
p29
sS'coin'
p30
S'ltc'
p31
sb.(itrades
trades
p0
(dp1
S'sell'
p2
cdecimal
Decimal
p3
(S'0.02553'
p4
tp5
Rp6
sS'updated'
p7
cdatetime
datetime
p8
(S'\x07\xde\x02\x18\x05\x021\x00\x00\x00'
p9
tp10
Rp11
sS'buy'
p12
g3
(S'0.02554'
p13
tp14
Rp15
sS'server_time'
p16
g8
(S'\x07\xde\x02\x18\x05\x023\x00\x00\x00'
p17
tp18
Rp19
sS'time_object'
p20
ctime
struct_time
p21
((I2014
I2
I24
I5
I2
I50
I0
I55
I0
tp22
(dp23
tp24
Rp25
sS'time'
p26
S'05:02:50'
p27
sS'date'
p28
S'02/24/14'
p29
sS'coin'
p30
S'ltc'
p31
sb.(itrades
trades
p0
(dp1
S'sell'
p2
cdecimal
Decimal
p3
(S'0.02553'
p4
tp5
Rp6
sS'updated'
p7
cdatetime
datetime
p8
(S'\x07\xde\x02\x18\x05\x0c2\x00\x00\x00'
p9
tp10
Rp11
sS'buy'
p12
g3
(S'0.02563'
p13
tp14
Rp15
sS'server_time'
p16
g8
(S'\x07\xde\x02\x18\x05\x0c3\x00\x00\x00'
p17
tp18
Rp19
sS'time_object'
p20
ctime
struct_time
p21
((I2014
I2
I24
I5
I12
I51
I0
I55
I0
tp22
(dp23
tp24
Rp25
sS'time'
p26
S'05:12:51'
p27
sS'date'
p28
S'02/24/14'
p29
sS'coin'
p30
S'ltc'
p31
sb.(itrades
trades
p0
(dp1
S'sell'
p2
cdecimal
Decimal
p3
(S'0.02554'
p4
tp5
Rp6
sS'updated'
p7
cdatetime
datetime
p8
(S'\x07\xde\x02\x18\x05\x164\x00\x00\x00'
p9
tp10
Rp11
sS'buy'
p12
g3
(S'0.02557'
p13
tp14
Rp15
sS'server_time'
p16
g8
(S'\x07\xde\x02\x18\x05\x165\x00\x00\x00'
p17
tp18
Rp19
sS'time_object'
p20
ctime
struct_time
p21
((I2014
I2
I24
I5
I22
I52
I0
I55
I0
tp22
(dp23
tp24
Rp25
sS'time'
p26
S'05:22:52'
p27
sS'date'
p28
S'02/24/14'
p29
sS'coin'
p30
S'ltc'
p31
sb.(itrades
trades
p0
(dp1
S'sell'
p2
cdecimal
Decimal
p3
(S'0.02553'
p4
tp5
Rp6
sS'updated'
p7
cdatetime
datetime
p8
(S'\x07\xde\x02\x18\x05 5\x00\x00\x00'
p9
tp10
Rp11
sS'buy'
p12
g3
(S'0.02557'
p13
tp14
Rp15
sS'server_time'
p16
g8
(S'\x07\xde\x02\x18\x05 6\x00\x00\x00'
p17
tp18
Rp19
sS'time_object'
p20
ctime
struct_time
p21
((I2014
I2
I24
I5
I32
I53
I0
I55
I0
tp22
(dp23
tp24
Rp25
sS'time'
p26
S'05:32:53'
p27
sS'date'
p28
S'02/24/14'
p29
sS'coin'
p30
S'ltc'
p31
sb.(itrades
trades
p0
(dp1
S'sell'
p2
cdecimal
Decimal
p3
(S'0.02557'
p4
tp5
Rp6
sS'updated'
p7
cdatetime
datetime
p8
(S'\x07\xde\x02\x18\x05*6\x00\x00\x00'
p9
tp10
Rp11
sS'buy'
p12
g3
(S'0.02563'
p13
tp14
Rp15
sS'server_time'
p16
g8
(S'\x07\xde\x02\x18\x05*8\x00\x00\x00'
p17
tp18
Rp19
sS'time_object'
p20
ctime
struct_time
p21
((I2014
I2
I24
I5
I42
I55
I0
I55
I0
tp22
(dp23
tp24
Rp25
sS'time'
p26
S'05:42:55'
p27
sS'date'
p28
S'02/24/14'
p29
sS'coin'
p30
S'ltc'
p31
sb.(itrades
trades
p0
(dp1
S'sell'
p2
cdecimal
Decimal
p3
(S'0.02554'
p4
tp5
Rp6
sS'updated'
p7
cdatetime
datetime
p8
(S'\x07\xde\x02\x18\x0546\x00\x00\x00'
p9
tp10
Rp11
sS'buy'
p12
g3
(S'0.02558'
p13
tp14
Rp15
sS'server_time'
p16
g8
(S'\x07\xde\x02\x18\x0548\x00\x00\x00'
p17
tp18
Rp19
sS'time_object'
p20
ctime
struct_time
p21
((I2014
I2
I24
I5
I52
I56
I0
I55
I0
tp22
(dp23
tp24
Rp25
sS'time'
p26
S'05:52:56'
p27
sS'date'
p28
S'02/24/14'
p29
sS'coin'
p30
S'ltc'
p31
sb.(itrades
trades
p0
(dp1
S'sell'
p2
cdecimal
Decimal
p3
(S'0.02558'
p4
tp5
Rp6
sS'updated'
p7
cdatetime
datetime
p8
(S'\x07\xde\x02\x18\x06\x027\x00\x00\x00'
p9
tp10
Rp11
sS'buy'
p12
g3
(S'0.02565'
p13
tp14
Rp15
sS'server_time'
p16
g8
(S'\x07\xde\x02\x18\x06\x029\x00\x00\x00'
p17
tp18
Rp19
sS'time_object'
p20
ctime
struct_time
p21
((I2014
I2
I24
I6
I2
I56
I0
I55
I0
tp22
(dp23
tp24
Rp25
sS'time'
p26
S'06:02:56'
p27
sS'date'
p28
S'02/24/14'
p29
sS'coin'
p30
S'ltc'
p31
sb.(itrades
trades
p0
(dp1
S'sell'
p2
cdecimal
Decimal
p3
(S'0.02553'
p4
tp5
Rp6
sS'updated'
p7
cdatetime
datetime
p8
(S'\x07\xde\x02\x18\x06\x0c8\x00\x00\x00'
p9
tp10
Rp11
sS'buy'
p12
g3
(S'0.02563'
p13
tp14
Rp15
sS'server_time'
p16
g8
(S'\x07\xde\x02\x18\x06\x0c:\x00\x00\x00'
p17
tp18
Rp19
sS'time_object'
p20
ctime
struct_time
p21
((I2014
I2
I24
I6
I12
I57
I0
I55
I0
tp22
(dp23
tp24
Rp25
sS'time'
p26
S'06:12:57'
p27
sS'date'
p28
S'02/24/14'
p29
sS'coin'
p30
S'ltc'
p31
sb.(itrades
trades
p0
(dp1
S'sell'
p2
cdecimal
Decimal
p3
(S'0.02552'
p4
tp5
Rp6
sS'updated'
p7
cdatetime
datetime
p8
(S'\x07\xde\x02\x18\x06\x169\x00\x00\x00'
p9
tp10
Rp11
sS'buy'
p12
g3
(S'0.02553'
p13
tp14
Rp15
sS'server_time'
p16
g8
(S'\x07\xde\x02\x18\x06\x16:\x00\x00\x00'
p17
tp18
Rp19
sS'time_object'
p20
ctime
struct_time
p21
((I2014
I2
I24
I6
I22
I58
I0
I55
I0
tp22
(dp23
tp24
Rp25
sS'time'
p26
S'06:22:58'
p27
sS'date'
p28
S'02/24/14'
p29
sS'coin'
p30
S'ltc'
p31
sb.(itrades
trades
p0
(dp1
S'sell'
p2
cdecimal
Decimal
p3
(S'0.02552'
p4
tp5
Rp6
sS'updated'
p7
cdatetime
datetime
p8
(S'\x07\xde\x02\x18\x06 ;\x00\x00\x00'
p9
tp10
Rp11
sS'buy'
p12
g3
(S'0.02553'
p13
tp14
Rp15
sS'server_time'
p16
g8
(S'\x07\xde\x02\x18\x06!\x00\x00\x00\x00'
p17
tp18
Rp19
sS'time_object'
p20
ctime
struct_time
p21
((I2014
I2
I24
I6
I32
I59
I0
I55
I0
tp22
(dp23
tp24
Rp25
sS'time'
p26
S'06:32:59'
p27
sS'date'
p28
S'02/24/14'
p29
sS'coin'
p30
S'ltc'
p31
sb.(itrades
trades
p0
(dp1
S'sell'
p2
cdecimal
Decimal
p3
(S'0.02545'
p4
tp5
Rp6
sS'updated'
p7
cdatetime
datetime
p8
(S'\x07\xde\x02\x18\x06+\x02\x00\x00\x00'
p9
tp10
Rp11
sS'buy'
p12
g3
(S'0.02558'
p13
tp14
Rp15
sS'server_time'
p16
g8
(S'\x07\xde\x02\x18\x06+\x04\x00\x00\x00'
p17
tp18
Rp19
sS'time_object'
p20
ctime
struct_time
p21
((I2014
I2
I24
I6
I43
I3
I0
I55
I0
tp22
(dp23
tp24
Rp25
sS'time'
p26
S'06:43:03'
p27
sS'date'
p28
S'02/24/14'
p29
sS'coin'
p30
S'ltc'
p31
sb.(itrades
trades
p0
(dp1
S'sell'
p2
cdecimal
Decimal
p3
(S'0.02544'
p4
tp5
Rp6
sS'updated'
p7
cdatetime
datetime
p8
(S'\x07\xde\x02\x18\x065\x03\x00\x00\x00'
p9
tp10
Rp11
sS'buy'
p12
g3
(S'0.02557'
p13
tp14
Rp15
sS'server_time'
p16
g8
(S'\x07\xde\x02\x18\x065\x05\x00\x00\x00'
p17
tp18
Rp19
sS'time_object'
p20
ctime
struct_time
p21
((I2014
I2
(itrades
trades
p0
(dp1
S'sell'
p2
cdecimal
Decimal
p3
(S'0.0255'
p4
tp5
Rp6
sS'updated'
p7
cdatetime
datetime
p8
(S"\x07\xde\x02\x18\x08\x14'\x00\x00\x00"
p9
tp10
Rp11
sS'buy'
p12
g3
(S'0.0256'
p13
tp14
Rp15
sS'server_time'
p16
g8
(S'\x07\xde\x02\x18\x08\x14(\x00\x00\x00'
p17
tp18
Rp19
sS'time_object'
p20
ctime
struct_time
p21
((I2014
I2
I24
I8
I20
I40
I0
I55
I0
tp22
(dp23
tp24
Rp25
sS'time'
p26
S'08:20:40'
p27
sS'date'
p28
S'02/24/14'
p29
sS'coin'
p30
S'ltc'
p31
sb.