(itrades
trades
p0
(dp1
S'sell'
p2
cdecimal
Decimal
p3
(S'580.919'
p4
tp5
Rp6
sS'updated'
p7
cdatetime
datetime
p8
(S"\x07\xde\x02\x18\x08\x14'\x00\x00\x00"
p9
tp10
Rp11
sS'buy'
p12
g3
(S'581.67'
p13
tp14
Rp15
sS'server_time'
p16
g8
(S"\x07\xde\x02\x18\x08\x14'\x00\x00\x00"
p17
tp18
Rp19
sS'time_object'
p20
ctime
struct_time
p21
((I2014
I2
I24
I8
I20
I38
I0
I55
I0
tp22
(dp23
tp24
Rp25
sS'time'
p26
S'08:20:38'
p27
sS'date'
p28
S'02/24/14'
p29
sS'coin'
p30
S'ltc'
p31
sb.(itrades
trades
p0
(dp1
S'sell'
p2
cdecimal
Decimal
p3
(S'525'
p4
tp5
Rp6
sS'updated'
p7
cdatetime
datetime
p8
(S'\x07\xde\x02\x19\n7\x16\x00\x00\x00'
p9
tp10
Rp11
sS'buy'
p12
g3
(S'527'
p13
tp14
Rp15
sS'server_time'
p16
g8
(S'\x07\xde\x02\x19\n7\x16\x00\x00\x00'
p17
tp18
Rp19
sS'time_object'
p20
ctime
struct_time
p21
((I2014
I2
I25
I10
I55
I22
I1
I56
I0
tp22
(dp23
tp24
Rp25
sS'time'
p26
S'10:55:22'
p27
sS'date'
p28
S'02/25/14'
p29
sS'coin'
p30
S'ltc'
p31
sb.(itrades
trades
p0
(dp1
S'sell'
p2
cdecimal
Decimal
p3
(S'515'
p4
tp5
Rp6
sS'updated'
p7
cdatetime
datetime
p8
(S'\x07\xde\x02\x19\r\x06!\x00\x00\x00'
p9
tp10
Rp11
sS'buy'
p12
g3
(S'515.001'
p13
tp14
Rp15
sS'server_time'
p16
g8
(S'\x07\xde\x02\x19\r\x06"\x00\x00\x00'
p17
tp18
Rp19
sS'time_object'
p20
ctime
struct_time
p21
((I2014
I2
I25
I13
I6
I32
I1
I56
I0
tp22
(dp23
tp24
Rp25
sS'time'
p26
S'13:06:32'
p27
sS'date'
p28
S'02/25/14'
p29
sS'coin'
p30
S'ltc'
p31
sb.(itrades
trades
p0
(dp1
S'sell'
p2
cdecimal
Decimal
p3
(S'547.137'
p4
tp5
Rp6
sS'updated'
p7
cdatetime
datetime
p8
(S'\x07\xde\x02\x19\x16\x110\x00\x00\x00'
p9
tp10
Rp11
sS'buy'
p12
g3
(S'548'
p13
tp14
Rp15
sS'server_time'
p16
g8
(S'\x07\xde\x02\x19\x16\x111\x00\x00\x00'
p17
tp18
Rp19
sS'time_object'
p20
ctime
struct_time
p21
((I2014
I2
I25
I22
I17
I48
I1
I56
I0
tp22
(dp23
tp24
Rp25
sS'time'
p26
S'22:17:48'
p27
sS'date'
p28
S'02/25/14'
p29
sS'coin'
p30
S'ltc'
p31
sb.(itrades
trades
p0
(dp1
S'sell'
p2
cdecimal
Decimal
p3
(S'563.22'
p4
tp5
Rp6
sS'updated'
p7
cdatetime
datetime
p8
(S'\x07\xde\x02\x1b\x08,5\x00\x00\x00'
p9
tp10
Rp11
sS'buy'
p12
g3
(S'563.5'
p13
tp14
Rp15
sS'server_time'
p16
g8
(S'\x07\xde\x02\x1b\x08,.\x00\x00\x00'
p17
tp18
Rp19
sS'time_object'
p20
ctime
struct_time
p21
((I2014
I2
I27
I8
I44
I45
I3
I58
I0
tp22
(dp23
tp24
Rp25
sS'time'
p26
S'08:44:45'
p27
sS'date'
p28
S'02/27/14'
p29
sS'coin'
p30
S'ltc'
p31
sb.(itrades
trades
p0
(dp1
S'sell'
p2
cdecimal
Decimal
p3
(S'558'
p4
tp5
Rp6
sS'updated'
p7
cdatetime
datetime
p8
(S'\x07\xde\x02\x1c\x02\x1b2\x00\x00\x00'
p9
tp10
Rp11
sS'buy'
p12
g3
(S'558.75'
p13
tp14
Rp15
sS'server_time'
p16
g8
(S'\x07\xde\x02\x1c\x02\x1b(\x00\x00\x00'
p17
tp18
Rp19
sS'time_object'
p20
ctime
struct_time
p21
((I2014
I2
I28
I2
I27
I38
I4
I59
I0
tp22
(dp23
tp24
Rp25
sS'time'
p26
S'02:27:38'
p27
sS'date'
p28
S'02/28/14'
p29
sS'coin'
p30
S'ltc'
p31
sb.(itrades
trades
p0
(dp1
S'sell'
p2
cdecimal
Decimal
p3
(S'554.6'
p4
tp5
Rp6
sS'updated'
p7
cdatetime
datetime
p8
(S'\x07\xde\x02\x1c\x040\x05\x00\x00\x00'
p9
tp10
Rp11
sS'buy'
p12
g3
(S'555'
p13
tp14
Rp15
sS'server_time'
p16
g8
(S'\x07\xde\x02\x1c\x04/6\x00\x00\x00'
p17
tp18
Rp19
sS'time_object'
p20
ctime
struct_time
p21
((I2014
I2
I28
I4
I47
I52
I4
I59
I0
tp22
(dp23
tp24
Rp25
sS'time'
p26
S'04:47:52'
p27
sS'date'
p28
S'02/28/14'
p29
sS'coin'
p30
S'ltc'
p31
sb.